
ECEN-361-Laser-Harp.elf:     file format elf32-littlearm

Sections:
Idx Name          Size      VMA       LMA       File off  Algn
  0 .isr_vector   00000188  08000000  08000000  00010000  2**0
                  CONTENTS, ALLOC, LOAD, READONLY, DATA
  1 .text         00004b54  08000188  08000188  00010188  2**3
                  CONTENTS, ALLOC, LOAD, READONLY, CODE
  2 .rodata       00037694  08004cdc  08004cdc  00014cdc  2**2
                  CONTENTS, ALLOC, LOAD, READONLY, DATA
  3 .ARM.extab    00000000  0803c370  0803c370  00050190  2**0
                  CONTENTS
  4 .ARM          00000008  0803c370  0803c370  0004c370  2**2
                  CONTENTS, ALLOC, LOAD, READONLY, DATA
  5 .preinit_array 00000000  0803c378  0803c378  00050190  2**0
                  CONTENTS, ALLOC, LOAD, DATA
  6 .init_array   00000004  0803c378  0803c378  0004c378  2**2
                  CONTENTS, ALLOC, LOAD, DATA
  7 .fini_array   00000004  0803c37c  0803c37c  0004c37c  2**2
                  CONTENTS, ALLOC, LOAD, DATA
  8 .data         00000190  20000000  0803c380  00050000  2**2
                  CONTENTS, ALLOC, LOAD, DATA
  9 .bss          000002f0  20000190  0803c510  00050190  2**2
                  ALLOC
 10 ._user_heap_stack 00000600  20000480  0803c510  00050480  2**0
                  ALLOC
 11 .ARM.attributes 00000030  00000000  00000000  00050190  2**0
                  CONTENTS, READONLY
 12 .comment      00000043  00000000  00000000  000501c0  2**0
                  CONTENTS, READONLY
 13 .debug_info   000260b5  00000000  00000000  00050203  2**0
                  CONTENTS, READONLY, DEBUGGING, OCTETS
 14 .debug_abbrev 00003e0f  00000000  00000000  000762b8  2**0
                  CONTENTS, READONLY, DEBUGGING, OCTETS
 15 .debug_loclists 00013b15  00000000  00000000  0007a0c7  2**0
                  CONTENTS, READONLY, DEBUGGING, OCTETS
 16 .debug_aranges 00001108  00000000  00000000  0008dbe0  2**3
                  CONTENTS, READONLY, DEBUGGING, OCTETS
 17 .debug_rnglists 00001ed3  00000000  00000000  0008ece8  2**0
                  CONTENTS, READONLY, DEBUGGING, OCTETS
 18 .debug_macro  00028367  00000000  00000000  00090bbb  2**0
                  CONTENTS, READONLY, DEBUGGING, OCTETS
 19 .debug_line   0002770a  00000000  00000000  000b8f22  2**0
                  CONTENTS, READONLY, DEBUGGING, OCTETS
 20 .debug_str    000f848e  00000000  00000000  000e062c  2**0
                  CONTENTS, READONLY, DEBUGGING, OCTETS
 21 .debug_frame  00003978  00000000  00000000  001d8abc  2**2
                  CONTENTS, READONLY, DEBUGGING, OCTETS
 22 .debug_line_str 00000076  00000000  00000000  001dc434  2**0
                  CONTENTS, READONLY, DEBUGGING, OCTETS

Disassembly of section .text:

08000188 <__do_global_dtors_aux>:
 8000188:	b510      	push	{r4, lr}
 800018a:	4c05      	ldr	r4, [pc, #20]	; (80001a0 <__do_global_dtors_aux+0x18>)
 800018c:	7823      	ldrb	r3, [r4, #0]
 800018e:	b933      	cbnz	r3, 800019e <__do_global_dtors_aux+0x16>
 8000190:	4b04      	ldr	r3, [pc, #16]	; (80001a4 <__do_global_dtors_aux+0x1c>)
 8000192:	b113      	cbz	r3, 800019a <__do_global_dtors_aux+0x12>
 8000194:	4804      	ldr	r0, [pc, #16]	; (80001a8 <__do_global_dtors_aux+0x20>)
 8000196:	f3af 8000 	nop.w
 800019a:	2301      	movs	r3, #1
 800019c:	7023      	strb	r3, [r4, #0]
 800019e:	bd10      	pop	{r4, pc}
 80001a0:	20000190 	.word	0x20000190
 80001a4:	00000000 	.word	0x00000000
 80001a8:	08004cc4 	.word	0x08004cc4

080001ac <frame_dummy>:
 80001ac:	b508      	push	{r3, lr}
 80001ae:	4b03      	ldr	r3, [pc, #12]	; (80001bc <frame_dummy+0x10>)
 80001b0:	b11b      	cbz	r3, 80001ba <frame_dummy+0xe>
 80001b2:	4903      	ldr	r1, [pc, #12]	; (80001c0 <frame_dummy+0x14>)
 80001b4:	4803      	ldr	r0, [pc, #12]	; (80001c4 <frame_dummy+0x18>)
 80001b6:	f3af 8000 	nop.w
 80001ba:	bd08      	pop	{r3, pc}
 80001bc:	00000000 	.word	0x00000000
 80001c0:	20000194 	.word	0x20000194
 80001c4:	08004cc4 	.word	0x08004cc4

080001c8 <strlen>:
 80001c8:	4603      	mov	r3, r0
 80001ca:	f813 2b01 	ldrb.w	r2, [r3], #1
 80001ce:	2a00      	cmp	r2, #0
 80001d0:	d1fb      	bne.n	80001ca <strlen+0x2>
 80001d2:	1a18      	subs	r0, r3, r0
 80001d4:	3801      	subs	r0, #1
 80001d6:	4770      	bx	lr

080001d8 <__aeabi_uldivmod>:
 80001d8:	b953      	cbnz	r3, 80001f0 <__aeabi_uldivmod+0x18>
 80001da:	b94a      	cbnz	r2, 80001f0 <__aeabi_uldivmod+0x18>
 80001dc:	2900      	cmp	r1, #0
 80001de:	bf08      	it	eq
 80001e0:	2800      	cmpeq	r0, #0
 80001e2:	bf1c      	itt	ne
 80001e4:	f04f 31ff 	movne.w	r1, #4294967295
 80001e8:	f04f 30ff 	movne.w	r0, #4294967295
 80001ec:	f000 b970 	b.w	80004d0 <__aeabi_idiv0>
 80001f0:	f1ad 0c08 	sub.w	ip, sp, #8
 80001f4:	e96d ce04 	strd	ip, lr, [sp, #-16]!
 80001f8:	f000 f806 	bl	8000208 <__udivmoddi4>
 80001fc:	f8dd e004 	ldr.w	lr, [sp, #4]
 8000200:	e9dd 2302 	ldrd	r2, r3, [sp, #8]
 8000204:	b004      	add	sp, #16
 8000206:	4770      	bx	lr

08000208 <__udivmoddi4>:
 8000208:	e92d 47f0 	stmdb	sp!, {r4, r5, r6, r7, r8, r9, sl, lr}
 800020c:	9e08      	ldr	r6, [sp, #32]
 800020e:	460d      	mov	r5, r1
 8000210:	4604      	mov	r4, r0
 8000212:	460f      	mov	r7, r1
 8000214:	2b00      	cmp	r3, #0
 8000216:	d14a      	bne.n	80002ae <__udivmoddi4+0xa6>
 8000218:	428a      	cmp	r2, r1
 800021a:	4694      	mov	ip, r2
 800021c:	d965      	bls.n	80002ea <__udivmoddi4+0xe2>
 800021e:	fab2 f382 	clz	r3, r2
 8000222:	b143      	cbz	r3, 8000236 <__udivmoddi4+0x2e>
 8000224:	fa02 fc03 	lsl.w	ip, r2, r3
 8000228:	f1c3 0220 	rsb	r2, r3, #32
 800022c:	409f      	lsls	r7, r3
 800022e:	fa20 f202 	lsr.w	r2, r0, r2
 8000232:	4317      	orrs	r7, r2
 8000234:	409c      	lsls	r4, r3
 8000236:	ea4f 4e1c 	mov.w	lr, ip, lsr #16
 800023a:	fa1f f58c 	uxth.w	r5, ip
 800023e:	fbb7 f1fe 	udiv	r1, r7, lr
 8000242:	0c22      	lsrs	r2, r4, #16
 8000244:	fb0e 7711 	mls	r7, lr, r1, r7
 8000248:	ea42 4207 	orr.w	r2, r2, r7, lsl #16
 800024c:	fb01 f005 	mul.w	r0, r1, r5
 8000250:	4290      	cmp	r0, r2
 8000252:	d90a      	bls.n	800026a <__udivmoddi4+0x62>
 8000254:	eb1c 0202 	adds.w	r2, ip, r2
 8000258:	f101 37ff 	add.w	r7, r1, #4294967295
 800025c:	f080 811c 	bcs.w	8000498 <__udivmoddi4+0x290>
 8000260:	4290      	cmp	r0, r2
 8000262:	f240 8119 	bls.w	8000498 <__udivmoddi4+0x290>
 8000266:	3902      	subs	r1, #2
 8000268:	4462      	add	r2, ip
 800026a:	1a12      	subs	r2, r2, r0
 800026c:	b2a4      	uxth	r4, r4
 800026e:	fbb2 f0fe 	udiv	r0, r2, lr
 8000272:	fb0e 2210 	mls	r2, lr, r0, r2
 8000276:	ea44 4402 	orr.w	r4, r4, r2, lsl #16
 800027a:	fb00 f505 	mul.w	r5, r0, r5
 800027e:	42a5      	cmp	r5, r4
 8000280:	d90a      	bls.n	8000298 <__udivmoddi4+0x90>
 8000282:	eb1c 0404 	adds.w	r4, ip, r4
 8000286:	f100 32ff 	add.w	r2, r0, #4294967295
 800028a:	f080 8107 	bcs.w	800049c <__udivmoddi4+0x294>
 800028e:	42a5      	cmp	r5, r4
 8000290:	f240 8104 	bls.w	800049c <__udivmoddi4+0x294>
 8000294:	4464      	add	r4, ip
 8000296:	3802      	subs	r0, #2
 8000298:	ea40 4001 	orr.w	r0, r0, r1, lsl #16
 800029c:	1b64      	subs	r4, r4, r5
 800029e:	2100      	movs	r1, #0
 80002a0:	b11e      	cbz	r6, 80002aa <__udivmoddi4+0xa2>
 80002a2:	40dc      	lsrs	r4, r3
 80002a4:	2300      	movs	r3, #0
 80002a6:	e9c6 4300 	strd	r4, r3, [r6]
 80002aa:	e8bd 87f0 	ldmia.w	sp!, {r4, r5, r6, r7, r8, r9, sl, pc}
 80002ae:	428b      	cmp	r3, r1
 80002b0:	d908      	bls.n	80002c4 <__udivmoddi4+0xbc>
 80002b2:	2e00      	cmp	r6, #0
 80002b4:	f000 80ed 	beq.w	8000492 <__udivmoddi4+0x28a>
 80002b8:	2100      	movs	r1, #0
 80002ba:	e9c6 0500 	strd	r0, r5, [r6]
 80002be:	4608      	mov	r0, r1
 80002c0:	e8bd 87f0 	ldmia.w	sp!, {r4, r5, r6, r7, r8, r9, sl, pc}
 80002c4:	fab3 f183 	clz	r1, r3
 80002c8:	2900      	cmp	r1, #0
 80002ca:	d149      	bne.n	8000360 <__udivmoddi4+0x158>
 80002cc:	42ab      	cmp	r3, r5
 80002ce:	d302      	bcc.n	80002d6 <__udivmoddi4+0xce>
 80002d0:	4282      	cmp	r2, r0
 80002d2:	f200 80f8 	bhi.w	80004c6 <__udivmoddi4+0x2be>
 80002d6:	1a84      	subs	r4, r0, r2
 80002d8:	eb65 0203 	sbc.w	r2, r5, r3
 80002dc:	2001      	movs	r0, #1
 80002de:	4617      	mov	r7, r2
 80002e0:	2e00      	cmp	r6, #0
 80002e2:	d0e2      	beq.n	80002aa <__udivmoddi4+0xa2>
 80002e4:	e9c6 4700 	strd	r4, r7, [r6]
 80002e8:	e7df      	b.n	80002aa <__udivmoddi4+0xa2>
 80002ea:	b902      	cbnz	r2, 80002ee <__udivmoddi4+0xe6>
 80002ec:	deff      	udf	#255	; 0xff
 80002ee:	fab2 f382 	clz	r3, r2
 80002f2:	2b00      	cmp	r3, #0
 80002f4:	f040 8090 	bne.w	8000418 <__udivmoddi4+0x210>
 80002f8:	1a8a      	subs	r2, r1, r2
 80002fa:	ea4f 471c 	mov.w	r7, ip, lsr #16
 80002fe:	fa1f fe8c 	uxth.w	lr, ip
 8000302:	2101      	movs	r1, #1
 8000304:	fbb2 f5f7 	udiv	r5, r2, r7
 8000308:	fb07 2015 	mls	r0, r7, r5, r2
 800030c:	0c22      	lsrs	r2, r4, #16
 800030e:	ea42 4200 	orr.w	r2, r2, r0, lsl #16
 8000312:	fb0e f005 	mul.w	r0, lr, r5
 8000316:	4290      	cmp	r0, r2
 8000318:	d908      	bls.n	800032c <__udivmoddi4+0x124>
 800031a:	eb1c 0202 	adds.w	r2, ip, r2
 800031e:	f105 38ff 	add.w	r8, r5, #4294967295
 8000322:	d202      	bcs.n	800032a <__udivmoddi4+0x122>
 8000324:	4290      	cmp	r0, r2
 8000326:	f200 80cb 	bhi.w	80004c0 <__udivmoddi4+0x2b8>
 800032a:	4645      	mov	r5, r8
 800032c:	1a12      	subs	r2, r2, r0
 800032e:	b2a4      	uxth	r4, r4
 8000330:	fbb2 f0f7 	udiv	r0, r2, r7
 8000334:	fb07 2210 	mls	r2, r7, r0, r2
 8000338:	ea44 4402 	orr.w	r4, r4, r2, lsl #16
 800033c:	fb0e fe00 	mul.w	lr, lr, r0
 8000340:	45a6      	cmp	lr, r4
 8000342:	d908      	bls.n	8000356 <__udivmoddi4+0x14e>
 8000344:	eb1c 0404 	adds.w	r4, ip, r4
 8000348:	f100 32ff 	add.w	r2, r0, #4294967295
 800034c:	d202      	bcs.n	8000354 <__udivmoddi4+0x14c>
 800034e:	45a6      	cmp	lr, r4
 8000350:	f200 80bb 	bhi.w	80004ca <__udivmoddi4+0x2c2>
 8000354:	4610      	mov	r0, r2
 8000356:	eba4 040e 	sub.w	r4, r4, lr
 800035a:	ea40 4005 	orr.w	r0, r0, r5, lsl #16
 800035e:	e79f      	b.n	80002a0 <__udivmoddi4+0x98>
 8000360:	f1c1 0720 	rsb	r7, r1, #32
 8000364:	408b      	lsls	r3, r1
 8000366:	fa22 fc07 	lsr.w	ip, r2, r7
 800036a:	ea4c 0c03 	orr.w	ip, ip, r3
 800036e:	fa05 f401 	lsl.w	r4, r5, r1
 8000372:	fa20 f307 	lsr.w	r3, r0, r7
 8000376:	40fd      	lsrs	r5, r7
 8000378:	ea4f 491c 	mov.w	r9, ip, lsr #16
 800037c:	4323      	orrs	r3, r4
 800037e:	fbb5 f8f9 	udiv	r8, r5, r9
 8000382:	fa1f fe8c 	uxth.w	lr, ip
 8000386:	fb09 5518 	mls	r5, r9, r8, r5
 800038a:	0c1c      	lsrs	r4, r3, #16
 800038c:	ea44 4405 	orr.w	r4, r4, r5, lsl #16
 8000390:	fb08 f50e 	mul.w	r5, r8, lr
 8000394:	42a5      	cmp	r5, r4
 8000396:	fa02 f201 	lsl.w	r2, r2, r1
 800039a:	fa00 f001 	lsl.w	r0, r0, r1
 800039e:	d90b      	bls.n	80003b8 <__udivmoddi4+0x1b0>
 80003a0:	eb1c 0404 	adds.w	r4, ip, r4
 80003a4:	f108 3aff 	add.w	sl, r8, #4294967295
 80003a8:	f080 8088 	bcs.w	80004bc <__udivmoddi4+0x2b4>
 80003ac:	42a5      	cmp	r5, r4
 80003ae:	f240 8085 	bls.w	80004bc <__udivmoddi4+0x2b4>
 80003b2:	f1a8 0802 	sub.w	r8, r8, #2
 80003b6:	4464      	add	r4, ip
 80003b8:	1b64      	subs	r4, r4, r5
 80003ba:	b29d      	uxth	r5, r3
 80003bc:	fbb4 f3f9 	udiv	r3, r4, r9
 80003c0:	fb09 4413 	mls	r4, r9, r3, r4
 80003c4:	ea45 4404 	orr.w	r4, r5, r4, lsl #16
 80003c8:	fb03 fe0e 	mul.w	lr, r3, lr
 80003cc:	45a6      	cmp	lr, r4
 80003ce:	d908      	bls.n	80003e2 <__udivmoddi4+0x1da>
 80003d0:	eb1c 0404 	adds.w	r4, ip, r4
 80003d4:	f103 35ff 	add.w	r5, r3, #4294967295
 80003d8:	d26c      	bcs.n	80004b4 <__udivmoddi4+0x2ac>
 80003da:	45a6      	cmp	lr, r4
 80003dc:	d96a      	bls.n	80004b4 <__udivmoddi4+0x2ac>
 80003de:	3b02      	subs	r3, #2
 80003e0:	4464      	add	r4, ip
 80003e2:	ea43 4308 	orr.w	r3, r3, r8, lsl #16
 80003e6:	fba3 9502 	umull	r9, r5, r3, r2
 80003ea:	eba4 040e 	sub.w	r4, r4, lr
 80003ee:	42ac      	cmp	r4, r5
 80003f0:	46c8      	mov	r8, r9
 80003f2:	46ae      	mov	lr, r5
 80003f4:	d356      	bcc.n	80004a4 <__udivmoddi4+0x29c>
 80003f6:	d053      	beq.n	80004a0 <__udivmoddi4+0x298>
 80003f8:	b156      	cbz	r6, 8000410 <__udivmoddi4+0x208>
 80003fa:	ebb0 0208 	subs.w	r2, r0, r8
 80003fe:	eb64 040e 	sbc.w	r4, r4, lr
 8000402:	fa04 f707 	lsl.w	r7, r4, r7
 8000406:	40ca      	lsrs	r2, r1
 8000408:	40cc      	lsrs	r4, r1
 800040a:	4317      	orrs	r7, r2
 800040c:	e9c6 7400 	strd	r7, r4, [r6]
 8000410:	4618      	mov	r0, r3
 8000412:	2100      	movs	r1, #0
 8000414:	e8bd 87f0 	ldmia.w	sp!, {r4, r5, r6, r7, r8, r9, sl, pc}
 8000418:	f1c3 0120 	rsb	r1, r3, #32
 800041c:	fa02 fc03 	lsl.w	ip, r2, r3
 8000420:	fa20 f201 	lsr.w	r2, r0, r1
 8000424:	fa25 f101 	lsr.w	r1, r5, r1
 8000428:	409d      	lsls	r5, r3
 800042a:	432a      	orrs	r2, r5
 800042c:	ea4f 471c 	mov.w	r7, ip, lsr #16
 8000430:	fa1f fe8c 	uxth.w	lr, ip
 8000434:	fbb1 f0f7 	udiv	r0, r1, r7
 8000438:	fb07 1510 	mls	r5, r7, r0, r1
 800043c:	0c11      	lsrs	r1, r2, #16
 800043e:	ea41 4105 	orr.w	r1, r1, r5, lsl #16
 8000442:	fb00 f50e 	mul.w	r5, r0, lr
 8000446:	428d      	cmp	r5, r1
 8000448:	fa04 f403 	lsl.w	r4, r4, r3
 800044c:	d908      	bls.n	8000460 <__udivmoddi4+0x258>
 800044e:	eb1c 0101 	adds.w	r1, ip, r1
 8000452:	f100 38ff 	add.w	r8, r0, #4294967295
 8000456:	d22f      	bcs.n	80004b8 <__udivmoddi4+0x2b0>
 8000458:	428d      	cmp	r5, r1
 800045a:	d92d      	bls.n	80004b8 <__udivmoddi4+0x2b0>
 800045c:	3802      	subs	r0, #2
 800045e:	4461      	add	r1, ip
 8000460:	1b49      	subs	r1, r1, r5
 8000462:	b292      	uxth	r2, r2
 8000464:	fbb1 f5f7 	udiv	r5, r1, r7
 8000468:	fb07 1115 	mls	r1, r7, r5, r1
 800046c:	ea42 4201 	orr.w	r2, r2, r1, lsl #16
 8000470:	fb05 f10e 	mul.w	r1, r5, lr
 8000474:	4291      	cmp	r1, r2
 8000476:	d908      	bls.n	800048a <__udivmoddi4+0x282>
 8000478:	eb1c 0202 	adds.w	r2, ip, r2
 800047c:	f105 38ff 	add.w	r8, r5, #4294967295
 8000480:	d216      	bcs.n	80004b0 <__udivmoddi4+0x2a8>
 8000482:	4291      	cmp	r1, r2
 8000484:	d914      	bls.n	80004b0 <__udivmoddi4+0x2a8>
 8000486:	3d02      	subs	r5, #2
 8000488:	4462      	add	r2, ip
 800048a:	1a52      	subs	r2, r2, r1
 800048c:	ea45 4100 	orr.w	r1, r5, r0, lsl #16
 8000490:	e738      	b.n	8000304 <__udivmoddi4+0xfc>
 8000492:	4631      	mov	r1, r6
 8000494:	4630      	mov	r0, r6
 8000496:	e708      	b.n	80002aa <__udivmoddi4+0xa2>
 8000498:	4639      	mov	r1, r7
 800049a:	e6e6      	b.n	800026a <__udivmoddi4+0x62>
 800049c:	4610      	mov	r0, r2
 800049e:	e6fb      	b.n	8000298 <__udivmoddi4+0x90>
 80004a0:	4548      	cmp	r0, r9
 80004a2:	d2a9      	bcs.n	80003f8 <__udivmoddi4+0x1f0>
 80004a4:	ebb9 0802 	subs.w	r8, r9, r2
 80004a8:	eb65 0e0c 	sbc.w	lr, r5, ip
 80004ac:	3b01      	subs	r3, #1
 80004ae:	e7a3      	b.n	80003f8 <__udivmoddi4+0x1f0>
 80004b0:	4645      	mov	r5, r8
 80004b2:	e7ea      	b.n	800048a <__udivmoddi4+0x282>
 80004b4:	462b      	mov	r3, r5
 80004b6:	e794      	b.n	80003e2 <__udivmoddi4+0x1da>
 80004b8:	4640      	mov	r0, r8
 80004ba:	e7d1      	b.n	8000460 <__udivmoddi4+0x258>
 80004bc:	46d0      	mov	r8, sl
 80004be:	e77b      	b.n	80003b8 <__udivmoddi4+0x1b0>
 80004c0:	3d02      	subs	r5, #2
 80004c2:	4462      	add	r2, ip
 80004c4:	e732      	b.n	800032c <__udivmoddi4+0x124>
 80004c6:	4608      	mov	r0, r1
 80004c8:	e70a      	b.n	80002e0 <__udivmoddi4+0xd8>
 80004ca:	4464      	add	r4, ip
 80004cc:	3802      	subs	r0, #2
 80004ce:	e742      	b.n	8000356 <__udivmoddi4+0x14e>

080004d0 <__aeabi_idiv0>:
 80004d0:	4770      	bx	lr
 80004d2:	bf00      	nop
 80004d4:	0000      	movs	r0, r0
	...

080004d8 <SystemClock_Config>:
/**
  * @brief System Clock Configuration
  * @retval None
  */
void SystemClock_Config(void)
{
 80004d8:	b510      	push	{r4, lr}
 80004da:	b098      	sub	sp, #96	; 0x60
  RCC_OscInitTypeDef RCC_OscInitStruct = {0};
 80004dc:	2244      	movs	r2, #68	; 0x44
 80004de:	2100      	movs	r1, #0
 80004e0:	a806      	add	r0, sp, #24
 80004e2:	f004 fbaf 	bl	8004c44 <memset>
  RCC_ClkInitTypeDef RCC_ClkInitStruct = {0};
 80004e6:	2300      	movs	r3, #0

  /** Configure the main internal regulator output voltage
  */
  if (HAL_PWREx_ControlVoltageScaling(PWR_REGULATOR_VOLTAGE_SCALE1) != HAL_OK)
 80004e8:	f44f 7000 	mov.w	r0, #512	; 0x200
  RCC_ClkInitTypeDef RCC_ClkInitStruct = {0};
 80004ec:	e9cd 3301 	strd	r3, r3, [sp, #4]
 80004f0:	e9cd 3303 	strd	r3, r3, [sp, #12]
 80004f4:	9305      	str	r3, [sp, #20]
  if (HAL_PWREx_ControlVoltageScaling(PWR_REGULATOR_VOLTAGE_SCALE1) != HAL_OK)
 80004f6:	f002 fc9d 	bl	8002e34 <HAL_PWREx_ControlVoltageScaling>
 80004fa:	b108      	cbz	r0, 8000500 <SystemClock_Config+0x28>
  \details Disables IRQ interrupts by setting the I-bit in the CPSR.
           Can only be executed in Privileged modes.
 */
__STATIC_FORCEINLINE void __disable_irq(void)
{
  __ASM volatile ("cpsid i" : : : "memory");
 80004fc:	b672      	cpsid	i
void Error_Handler(void)
{
  /* USER CODE BEGIN Error_Handler_Debug */
  /* User can add his own implementation to report the HAL error return state */
  __disable_irq();
  while (1)
 80004fe:	e7fe      	b.n	80004fe <SystemClock_Config+0x26>
  RCC_OscInitStruct.PLL.PLLP = RCC_PLLP_DIV7;
 8000500:	ed9f 7b15 	vldr	d7, [pc, #84]	; 8000558 <SystemClock_Config+0x80>
  RCC_OscInitStruct.HSIState = RCC_HSI_ON;
 8000504:	f44f 7180 	mov.w	r1, #256	; 0x100
  RCC_OscInitStruct.HSICalibrationValue = RCC_HSICALIBRATION_DEFAULT;
 8000508:	2210      	movs	r2, #16
  RCC_OscInitStruct.OscillatorType = RCC_OSCILLATORTYPE_HSI;
 800050a:	2302      	movs	r3, #2
  RCC_OscInitStruct.HSICalibrationValue = RCC_HSICALIBRATION_DEFAULT;
 800050c:	e9cd 1209 	strd	r1, r2, [sp, #36]	; 0x24
  if (HAL_RCC_OscConfig(&RCC_OscInitStruct) != HAL_OK)
 8000510:	a806      	add	r0, sp, #24
  RCC_OscInitStruct.PLL.PLLM = 1;
 8000512:	2101      	movs	r1, #1
  RCC_OscInitStruct.PLL.PLLN = 10;
 8000514:	220a      	movs	r2, #10
  RCC_OscInitStruct.PLL.PLLSource = RCC_PLLSOURCE_HSI;
 8000516:	e9cd 3310 	strd	r3, r3, [sp, #64]	; 0x40
  RCC_OscInitStruct.OscillatorType = RCC_OSCILLATORTYPE_HSI;
 800051a:	9306      	str	r3, [sp, #24]
  RCC_OscInitStruct.PLL.PLLR = RCC_PLLR_DIV2;
 800051c:	9316      	str	r3, [sp, #88]	; 0x58
  RCC_OscInitStruct.PLL.PLLP = RCC_PLLP_DIV7;
 800051e:	ed8d 7b14 	vstr	d7, [sp, #80]	; 0x50
  RCC_OscInitStruct.PLL.PLLM = 1;
 8000522:	9112      	str	r1, [sp, #72]	; 0x48
  RCC_OscInitStruct.PLL.PLLN = 10;
 8000524:	9213      	str	r2, [sp, #76]	; 0x4c
  if (HAL_RCC_OscConfig(&RCC_OscInitStruct) != HAL_OK)
 8000526:	f002 fd67 	bl	8002ff8 <HAL_RCC_OscConfig>
 800052a:	4603      	mov	r3, r0
 800052c:	b108      	cbz	r0, 8000532 <SystemClock_Config+0x5a>
 800052e:	b672      	cpsid	i
  while (1)
 8000530:	e7fe      	b.n	8000530 <SystemClock_Config+0x58>
  if (HAL_RCC_ClockConfig(&RCC_ClkInitStruct, FLASH_LATENCY_4) != HAL_OK)
 8000532:	2104      	movs	r1, #4
  RCC_ClkInitStruct.ClockType = RCC_CLOCKTYPE_HCLK|RCC_CLOCKTYPE_SYSCLK
 8000534:	240f      	movs	r4, #15
  RCC_ClkInitStruct.SYSCLKSource = RCC_SYSCLKSOURCE_PLLCLK;
 8000536:	2203      	movs	r2, #3
  if (HAL_RCC_ClockConfig(&RCC_ClkInitStruct, FLASH_LATENCY_4) != HAL_OK)
 8000538:	eb0d 0001 	add.w	r0, sp, r1
  RCC_ClkInitStruct.SYSCLKSource = RCC_SYSCLKSOURCE_PLLCLK;
 800053c:	e9cd 4201 	strd	r4, r2, [sp, #4]
  RCC_ClkInitStruct.APB1CLKDivider = RCC_HCLK_DIV1;
 8000540:	e9cd 3303 	strd	r3, r3, [sp, #12]
  RCC_ClkInitStruct.APB2CLKDivider = RCC_HCLK_DIV1;
 8000544:	9305      	str	r3, [sp, #20]
  if (HAL_RCC_ClockConfig(&RCC_ClkInitStruct, FLASH_LATENCY_4) != HAL_OK)
 8000546:	f003 f83f 	bl	80035c8 <HAL_RCC_ClockConfig>
 800054a:	b108      	cbz	r0, 8000550 <SystemClock_Config+0x78>
 800054c:	b672      	cpsid	i
  while (1)
 800054e:	e7fe      	b.n	800054e <SystemClock_Config+0x76>
}
 8000550:	b018      	add	sp, #96	; 0x60
 8000552:	bd10      	pop	{r4, pc}
 8000554:	f3af 8000 	nop.w
 8000558:	00000007 	.word	0x00000007
 800055c:	00000002 	.word	0x00000002

08000560 <main>:
{
 8000560:	b500      	push	{lr}
  GPIO_InitTypeDef GPIO_InitStruct = {0};
 8000562:	2400      	movs	r4, #0
{
 8000564:	b093      	sub	sp, #76	; 0x4c
  HAL_Init();
 8000566:	f001 fe19 	bl	800219c <HAL_Init>
  SystemClock_Config();
 800056a:	f7ff ffb5 	bl	80004d8 <SystemClock_Config>
  GPIO_InitTypeDef GPIO_InitStruct = {0};
 800056e:	e9cd 440a 	strd	r4, r4, [sp, #40]	; 0x28
  __HAL_RCC_GPIOC_CLK_ENABLE();
 8000572:	4b94      	ldr	r3, [pc, #592]	; (80007c4 <main+0x264>)
  GPIO_InitTypeDef GPIO_InitStruct = {0};
 8000574:	940c      	str	r4, [sp, #48]	; 0x30
  __HAL_RCC_GPIOC_CLK_ENABLE();
 8000576:	6cda      	ldr	r2, [r3, #76]	; 0x4c
  HAL_GPIO_Init(GPIOC, &GPIO_InitStruct);
 8000578:	4893      	ldr	r0, [pc, #588]	; (80007c8 <main+0x268>)
  __HAL_RCC_GPIOC_CLK_ENABLE();
 800057a:	f042 0204 	orr.w	r2, r2, #4
 800057e:	64da      	str	r2, [r3, #76]	; 0x4c
 8000580:	6cda      	ldr	r2, [r3, #76]	; 0x4c
 8000582:	f002 0204 	and.w	r2, r2, #4
 8000586:	9201      	str	r2, [sp, #4]
 8000588:	9a01      	ldr	r2, [sp, #4]
  __HAL_RCC_GPIOH_CLK_ENABLE();
 800058a:	6cda      	ldr	r2, [r3, #76]	; 0x4c
 800058c:	f042 0280 	orr.w	r2, r2, #128	; 0x80
 8000590:	64da      	str	r2, [r3, #76]	; 0x4c
 8000592:	6cda      	ldr	r2, [r3, #76]	; 0x4c
 8000594:	f002 0280 	and.w	r2, r2, #128	; 0x80
 8000598:	9202      	str	r2, [sp, #8]
 800059a:	9a02      	ldr	r2, [sp, #8]
  __HAL_RCC_GPIOA_CLK_ENABLE();
 800059c:	6cda      	ldr	r2, [r3, #76]	; 0x4c
 800059e:	f042 0201 	orr.w	r2, r2, #1
 80005a2:	64da      	str	r2, [r3, #76]	; 0x4c
 80005a4:	6cda      	ldr	r2, [r3, #76]	; 0x4c
 80005a6:	f002 0201 	and.w	r2, r2, #1
 80005aa:	9203      	str	r2, [sp, #12]
 80005ac:	9a03      	ldr	r2, [sp, #12]
  __HAL_RCC_GPIOB_CLK_ENABLE();
 80005ae:	6cda      	ldr	r2, [r3, #76]	; 0x4c
 80005b0:	f042 0202 	orr.w	r2, r2, #2
 80005b4:	64da      	str	r2, [r3, #76]	; 0x4c
 80005b6:	6cdb      	ldr	r3, [r3, #76]	; 0x4c
 80005b8:	f003 0302 	and.w	r3, r3, #2
 80005bc:	9304      	str	r3, [sp, #16]
  GPIO_InitStruct.Pin = NOTE_1_Pin|NOTE_2_Pin|NOTE_3_Pin|NOTE_4_Pin
 80005be:	f640 72ff 	movw	r2, #4095	; 0xfff
  HAL_GPIO_Init(GPIOC, &GPIO_InitStruct);
 80005c2:	a908      	add	r1, sp, #32
  GPIO_InitStruct.Pin = NOTE_1_Pin|NOTE_2_Pin|NOTE_3_Pin|NOTE_4_Pin
 80005c4:	f44f 1344 	mov.w	r3, #3211264	; 0x310000
 80005c8:	e9cd 2308 	strd	r2, r3, [sp, #32]
  GPIO_InitStruct.Pull = GPIO_PULLUP;
 80005cc:	2501      	movs	r5, #1
  __HAL_RCC_GPIOB_CLK_ENABLE();
 80005ce:	9b04      	ldr	r3, [sp, #16]
  HAL_GPIO_Init(GPIOC, &GPIO_InitStruct);
 80005d0:	f002 f80e 	bl	80025f0 <HAL_GPIO_Init>
  GPIO_InitStruct.Pin = TOP_BTN_Pin|BOTTOM_BTN_Pin|LEFT_BTN_Pin|RIGHT_BTN_Pin;
 80005d4:	2300      	movs	r3, #0
 80005d6:	f44f 4270 	mov.w	r2, #61440	; 0xf000
  HAL_GPIO_Init(GPIOB, &GPIO_InitStruct);
 80005da:	487c      	ldr	r0, [pc, #496]	; (80007cc <main+0x26c>)
  GPIO_InitStruct.Pull = GPIO_PULLUP;
 80005dc:	950a      	str	r5, [sp, #40]	; 0x28
  HAL_GPIO_Init(GPIOB, &GPIO_InitStruct);
 80005de:	a908      	add	r1, sp, #32
  GPIO_InitStruct.Pin = TOP_BTN_Pin|BOTTOM_BTN_Pin|LEFT_BTN_Pin|RIGHT_BTN_Pin;
 80005e0:	e9cd 2308 	strd	r2, r3, [sp, #32]
  HAL_GPIO_Init(GPIOB, &GPIO_InitStruct);
 80005e4:	f002 f804 	bl	80025f0 <HAL_GPIO_Init>
  HAL_NVIC_SetPriority(EXTI0_IRQn, 0, 0);
 80005e8:	4622      	mov	r2, r4
 80005ea:	4621      	mov	r1, r4
 80005ec:	2006      	movs	r0, #6
 80005ee:	f001 fe23 	bl	8002238 <HAL_NVIC_SetPriority>
  HAL_NVIC_EnableIRQ(EXTI0_IRQn);
 80005f2:	2006      	movs	r0, #6
 80005f4:	f001 fe5e 	bl	80022b4 <HAL_NVIC_EnableIRQ>
  HAL_NVIC_SetPriority(EXTI1_IRQn, 0, 0);
 80005f8:	4622      	mov	r2, r4
 80005fa:	4621      	mov	r1, r4
 80005fc:	2007      	movs	r0, #7
 80005fe:	f001 fe1b 	bl	8002238 <HAL_NVIC_SetPriority>
  HAL_NVIC_EnableIRQ(EXTI1_IRQn);
 8000602:	2007      	movs	r0, #7
 8000604:	f001 fe56 	bl	80022b4 <HAL_NVIC_EnableIRQ>
  HAL_NVIC_SetPriority(EXTI2_IRQn, 0, 0);
 8000608:	4622      	mov	r2, r4
 800060a:	4621      	mov	r1, r4
 800060c:	2008      	movs	r0, #8
 800060e:	f001 fe13 	bl	8002238 <HAL_NVIC_SetPriority>
  HAL_NVIC_EnableIRQ(EXTI2_IRQn);
 8000612:	2008      	movs	r0, #8
 8000614:	f001 fe4e 	bl	80022b4 <HAL_NVIC_EnableIRQ>
  HAL_NVIC_SetPriority(EXTI3_IRQn, 0, 0);
 8000618:	4622      	mov	r2, r4
 800061a:	4621      	mov	r1, r4
 800061c:	2009      	movs	r0, #9
 800061e:	f001 fe0b 	bl	8002238 <HAL_NVIC_SetPriority>
  HAL_NVIC_EnableIRQ(EXTI3_IRQn);
 8000622:	2009      	movs	r0, #9
 8000624:	f001 fe46 	bl	80022b4 <HAL_NVIC_EnableIRQ>
  HAL_NVIC_SetPriority(EXTI4_IRQn, 0, 0);
 8000628:	4622      	mov	r2, r4
 800062a:	4621      	mov	r1, r4
 800062c:	200a      	movs	r0, #10
 800062e:	f001 fe03 	bl	8002238 <HAL_NVIC_SetPriority>
  HAL_NVIC_EnableIRQ(EXTI4_IRQn);
 8000632:	200a      	movs	r0, #10
 8000634:	f001 fe3e 	bl	80022b4 <HAL_NVIC_EnableIRQ>
  HAL_NVIC_SetPriority(EXTI9_5_IRQn, 0, 0);
 8000638:	4622      	mov	r2, r4
 800063a:	4621      	mov	r1, r4
 800063c:	2017      	movs	r0, #23
 800063e:	f001 fdfb 	bl	8002238 <HAL_NVIC_SetPriority>
  HAL_NVIC_EnableIRQ(EXTI9_5_IRQn);
 8000642:	2017      	movs	r0, #23
 8000644:	f001 fe36 	bl	80022b4 <HAL_NVIC_EnableIRQ>
  HAL_NVIC_SetPriority(EXTI15_10_IRQn, 0, 0);
 8000648:	4622      	mov	r2, r4
 800064a:	4621      	mov	r1, r4
 800064c:	2028      	movs	r0, #40	; 0x28
 800064e:	f001 fdf3 	bl	8002238 <HAL_NVIC_SetPriority>
  HAL_NVIC_EnableIRQ(EXTI15_10_IRQn);
 8000652:	2028      	movs	r0, #40	; 0x28
 8000654:	f001 fe2e 	bl	80022b4 <HAL_NVIC_EnableIRQ>
  huart2.Instance = USART2;
 8000658:	485d      	ldr	r0, [pc, #372]	; (80007d0 <main+0x270>)
  huart2.Init.BaudRate = 115200;
 800065a:	4a5e      	ldr	r2, [pc, #376]	; (80007d4 <main+0x274>)
 800065c:	f44f 33e1 	mov.w	r3, #115200	; 0x1c200
 8000660:	e9c0 2300 	strd	r2, r3, [r0]
  huart2.Init.Mode = UART_MODE_TX_RX;
 8000664:	230c      	movs	r3, #12
  huart2.Init.StopBits = UART_STOPBITS_1;
 8000666:	e9c0 4402 	strd	r4, r4, [r0, #8]
  huart2.Init.Mode = UART_MODE_TX_RX;
 800066a:	e9c0 4304 	strd	r4, r3, [r0, #16]
  huart2.Init.OverSampling = UART_OVERSAMPLING_16;
 800066e:	e9c0 4406 	strd	r4, r4, [r0, #24]
  huart2.AdvancedInit.AdvFeatureInit = UART_ADVFEATURE_NO_INIT;
 8000672:	e9c0 4408 	strd	r4, r4, [r0, #32]
  if (HAL_UART_Init(&huart2) != HAL_OK)
 8000676:	f004 fab1 	bl	8004bdc <HAL_UART_Init>
 800067a:	b108      	cbz	r0, 8000680 <main+0x120>
 800067c:	b672      	cpsid	i
  while (1)
 800067e:	e7fe      	b.n	800067e <main+0x11e>
  hdac1.Instance = DAC1;
 8000680:	4c55      	ldr	r4, [pc, #340]	; (80007d8 <main+0x278>)
  DAC_ChannelConfTypeDef sConfig = {0};
 8000682:	4601      	mov	r1, r0
 8000684:	2224      	movs	r2, #36	; 0x24
 8000686:	a808      	add	r0, sp, #32
 8000688:	f004 fadc 	bl	8004c44 <memset>
  hdac1.Instance = DAC1;
 800068c:	4b53      	ldr	r3, [pc, #332]	; (80007dc <main+0x27c>)
 800068e:	6023      	str	r3, [r4, #0]
  if (HAL_DAC_Init(&hdac1) != HAL_OK)
 8000690:	4620      	mov	r0, r4
 8000692:	f001 fe37 	bl	8002304 <HAL_DAC_Init>
 8000696:	b108      	cbz	r0, 800069c <main+0x13c>
 8000698:	b672      	cpsid	i
  while (1)
 800069a:	e7fe      	b.n	800069a <main+0x13a>
  sConfig.DAC_Trigger = DAC_TRIGGER_NONE;
 800069c:	e9cd 0008 	strd	r0, r0, [sp, #32]
  sConfig.DAC_ConnectOnChipPeripheral = DAC_CHIPCONNECT_DISABLE;
 80006a0:	e9cd 000a 	strd	r0, r0, [sp, #40]	; 0x28
  if (HAL_DAC_ConfigChannel(&hdac1, &sConfig, DAC_CHANNEL_1) != HAL_OK)
 80006a4:	4602      	mov	r2, r0
  sConfig.DAC_UserTrimming = DAC_TRIMMING_FACTORY;
 80006a6:	900c      	str	r0, [sp, #48]	; 0x30
  if (HAL_DAC_ConfigChannel(&hdac1, &sConfig, DAC_CHANNEL_1) != HAL_OK)
 80006a8:	a908      	add	r1, sp, #32
 80006aa:	4620      	mov	r0, r4
 80006ac:	f001 febc 	bl	8002428 <HAL_DAC_ConfigChannel>
 80006b0:	b108      	cbz	r0, 80006b6 <main+0x156>
 80006b2:	b672      	cpsid	i
  while (1)
 80006b4:	e7fe      	b.n	80006b4 <main+0x154>
  if (HAL_DAC_ConfigChannel(&hdac1, &sConfig, DAC_CHANNEL_2) != HAL_OK)
 80006b6:	2210      	movs	r2, #16
 80006b8:	a908      	add	r1, sp, #32
 80006ba:	4620      	mov	r0, r4
 80006bc:	f001 feb4 	bl	8002428 <HAL_DAC_ConfigChannel>
 80006c0:	4603      	mov	r3, r0
 80006c2:	b9c0      	cbnz	r0, 80006f6 <main+0x196>
  htim15.Instance = TIM15;
 80006c4:	4c46      	ldr	r4, [pc, #280]	; (80007e0 <main+0x280>)
 80006c6:	4a47      	ldr	r2, [pc, #284]	; (80007e4 <main+0x284>)
 80006c8:	6022      	str	r2, [r4, #0]
  htim15.Init.Prescaler = 80-1;
 80006ca:	224f      	movs	r2, #79	; 0x4f
 80006cc:	6062      	str	r2, [r4, #4]
  htim15.Init.Period = 9;
 80006ce:	2209      	movs	r2, #9
 80006d0:	e9c4 0202 	strd	r0, r2, [r4, #8]
  TIM_ClockConfigTypeDef sClockSourceConfig = {0};
 80006d4:	e9cd 0008 	strd	r0, r0, [sp, #32]
 80006d8:	e9cd 000a 	strd	r0, r0, [sp, #40]	; 0x28
  htim15.Init.RepetitionCounter = 0;
 80006dc:	e9c4 0004 	strd	r0, r0, [r4, #16]
  TIM_MasterConfigTypeDef sMasterConfig = {0};
 80006e0:	9005      	str	r0, [sp, #20]
  htim15.Init.AutoReloadPreload = TIM_AUTORELOAD_PRELOAD_ENABLE;
 80006e2:	2280      	movs	r2, #128	; 0x80
  if (HAL_TIM_Base_Init(&htim15) != HAL_OK)
 80006e4:	4620      	mov	r0, r4
  TIM_MasterConfigTypeDef sMasterConfig = {0};
 80006e6:	e9cd 3306 	strd	r3, r3, [sp, #24]
  htim15.Init.AutoReloadPreload = TIM_AUTORELOAD_PRELOAD_ENABLE;
 80006ea:	61a2      	str	r2, [r4, #24]
  if (HAL_TIM_Base_Init(&htim15) != HAL_OK)
 80006ec:	f003 fb78 	bl	8003de0 <HAL_TIM_Base_Init>
 80006f0:	b118      	cbz	r0, 80006fa <main+0x19a>
 80006f2:	b672      	cpsid	i
  while (1)
 80006f4:	e7fe      	b.n	80006f4 <main+0x194>
 80006f6:	b672      	cpsid	i
 80006f8:	e7fe      	b.n	80006f8 <main+0x198>
  sClockSourceConfig.ClockSource = TIM_CLOCKSOURCE_INTERNAL;
 80006fa:	f44f 5380 	mov.w	r3, #4096	; 0x1000
  if (HAL_TIM_ConfigClockSource(&htim15, &sClockSourceConfig) != HAL_OK)
 80006fe:	a908      	add	r1, sp, #32
 8000700:	4620      	mov	r0, r4
  sClockSourceConfig.ClockSource = TIM_CLOCKSOURCE_INTERNAL;
 8000702:	9308      	str	r3, [sp, #32]
  if (HAL_TIM_ConfigClockSource(&htim15, &sClockSourceConfig) != HAL_OK)
 8000704:	f003 fc36 	bl	8003f74 <HAL_TIM_ConfigClockSource>
 8000708:	4603      	mov	r3, r0
 800070a:	b108      	cbz	r0, 8000710 <main+0x1b0>
 800070c:	b672      	cpsid	i
  while (1)
 800070e:	e7fe      	b.n	800070e <main+0x1ae>
  if (HAL_TIMEx_MasterConfigSynchronization(&htim15, &sMasterConfig) != HAL_OK)
 8000710:	a905      	add	r1, sp, #20
 8000712:	4620      	mov	r0, r4
  sMasterConfig.MasterOutputTrigger = TIM_TRGO_RESET;
 8000714:	9305      	str	r3, [sp, #20]
  sMasterConfig.MasterSlaveMode = TIM_MASTERSLAVEMODE_DISABLE;
 8000716:	9307      	str	r3, [sp, #28]
  if (HAL_TIMEx_MasterConfigSynchronization(&htim15, &sMasterConfig) != HAL_OK)
 8000718:	f003 fd8e 	bl	8004238 <HAL_TIMEx_MasterConfigSynchronization>
 800071c:	4603      	mov	r3, r0
 800071e:	b108      	cbz	r0, 8000724 <main+0x1c4>
 8000720:	b672      	cpsid	i
  while (1)
 8000722:	e7fe      	b.n	8000722 <main+0x1c2>
  hi2c1.Instance = I2C1;
 8000724:	4c30      	ldr	r4, [pc, #192]	; (80007e8 <main+0x288>)
  hi2c1.Init.Timing = 0x10909CEC;
 8000726:	4931      	ldr	r1, [pc, #196]	; (80007ec <main+0x28c>)
 8000728:	4a31      	ldr	r2, [pc, #196]	; (80007f0 <main+0x290>)
  hi2c1.Init.NoStretchMode = I2C_NOSTRETCH_DISABLE;
 800072a:	6223      	str	r3, [r4, #32]
  if (HAL_I2C_Init(&hi2c1) != HAL_OK)
 800072c:	4620      	mov	r0, r4
  hi2c1.Init.Timing = 0x10909CEC;
 800072e:	e9c4 1200 	strd	r1, r2, [r4]
  hi2c1.Init.AddressingMode = I2C_ADDRESSINGMODE_7BIT;
 8000732:	e9c4 3502 	strd	r3, r5, [r4, #8]
  hi2c1.Init.OwnAddress2 = 0;
 8000736:	e9c4 3304 	strd	r3, r3, [r4, #16]
  hi2c1.Init.GeneralCallMode = I2C_GENERALCALL_DISABLE;
 800073a:	e9c4 3306 	strd	r3, r3, [r4, #24]
  if (HAL_I2C_Init(&hi2c1) != HAL_OK)
 800073e:	f002 f927 	bl	8002990 <HAL_I2C_Init>
 8000742:	4601      	mov	r1, r0
 8000744:	b108      	cbz	r0, 800074a <main+0x1ea>
 8000746:	b672      	cpsid	i
  while (1)
 8000748:	e7fe      	b.n	8000748 <main+0x1e8>
  if (HAL_I2CEx_ConfigAnalogFilter(&hi2c1, I2C_ANALOGFILTER_ENABLE) != HAL_OK)
 800074a:	4620      	mov	r0, r4
 800074c:	f002 fb14 	bl	8002d78 <HAL_I2CEx_ConfigAnalogFilter>
 8000750:	4601      	mov	r1, r0
 8000752:	b108      	cbz	r0, 8000758 <main+0x1f8>
 8000754:	b672      	cpsid	i
  while (1)
 8000756:	e7fe      	b.n	8000756 <main+0x1f6>
  if (HAL_I2CEx_ConfigDigitalFilter(&hi2c1, 0) != HAL_OK)
 8000758:	4620      	mov	r0, r4
 800075a:	f002 fb37 	bl	8002dcc <HAL_I2CEx_ConfigDigitalFilter>
 800075e:	b108      	cbz	r0, 8000764 <main+0x204>
 8000760:	b672      	cpsid	i
  while (1)
 8000762:	e7fe      	b.n	8000762 <main+0x202>
  htim16.Instance = TIM16;
 8000764:	4c23      	ldr	r4, [pc, #140]	; (80007f4 <main+0x294>)
 8000766:	4824      	ldr	r0, [pc, #144]	; (80007f8 <main+0x298>)
  htim16.Init.Prescaler = 3200-1;
 8000768:	f640 427f 	movw	r2, #3199	; 0xc7f
 800076c:	e9c4 0200 	strd	r0, r2, [r4]
  htim16.Init.CounterMode = TIM_COUNTERMODE_UP;
 8000770:	2300      	movs	r3, #0
  htim16.Init.Period = 100-1;
 8000772:	2163      	movs	r1, #99	; 0x63
  htim16.Init.AutoReloadPreload = TIM_AUTORELOAD_PRELOAD_ENABLE;
 8000774:	2280      	movs	r2, #128	; 0x80
  if (HAL_TIM_Base_Init(&htim16) != HAL_OK)
 8000776:	4620      	mov	r0, r4
  htim16.Init.Period = 100-1;
 8000778:	e9c4 3102 	strd	r3, r1, [r4, #8]
  htim16.Init.RepetitionCounter = 0;
 800077c:	e9c4 3304 	strd	r3, r3, [r4, #16]
  htim16.Init.AutoReloadPreload = TIM_AUTORELOAD_PRELOAD_ENABLE;
 8000780:	61a2      	str	r2, [r4, #24]
  if (HAL_TIM_Base_Init(&htim16) != HAL_OK)
 8000782:	f003 fb2d 	bl	8003de0 <HAL_TIM_Base_Init>
 8000786:	4605      	mov	r5, r0
 8000788:	b108      	cbz	r0, 800078e <main+0x22e>
 800078a:	b672      	cpsid	i
  while (1)
 800078c:	e7fe      	b.n	800078c <main+0x22c>
  HAL_TIM_Base_Start_IT(&htim15); // Start the Music Interrupt Timer
 800078e:	4814      	ldr	r0, [pc, #80]	; (80007e0 <main+0x280>)
 8000790:	f003 fbb2 	bl	8003ef8 <HAL_TIM_Base_Start_IT>
  HAL_TIM_Base_Start_IT(&htim16); // Star the Sustain Interrupt Timer
 8000794:	4620      	mov	r0, r4
 8000796:	f003 fbaf 	bl	8003ef8 <HAL_TIM_Base_Start_IT>
  HAL_DAC_Start(&hdac1, DAC_CHANNEL_2); // Start one of the dac channels
 800079a:	2110      	movs	r1, #16
 800079c:	480e      	ldr	r0, [pc, #56]	; (80007d8 <main+0x278>)
 800079e:	f001 fdc7 	bl	8002330 <HAL_DAC_Start>
  HAL_DAC_Start(&hdac1, DAC_CHANNEL_1); // Start one of the dac channels
 80007a2:	4629      	mov	r1, r5
 80007a4:	480c      	ldr	r0, [pc, #48]	; (80007d8 <main+0x278>)
 80007a6:	f001 fdc3 	bl	8002330 <HAL_DAC_Start>
  tranposition__increment_octave();
 80007aa:	f001 fa6b 	bl	8001c84 <tranposition__increment_octave>
  menu_init();
 80007ae:	f000 f951 	bl	8000a54 <menu_init>
  lcd_init();
 80007b2:	f000 facb 	bl	8000d4c <lcd_init>
	  poll_buttons();
 80007b6:	f000 fa29 	bl	8000c0c <poll_buttons>
	  HAL_Delay(50);
 80007ba:	2032      	movs	r0, #50	; 0x32
 80007bc:	f001 fd18 	bl	80021f0 <HAL_Delay>
  while (1)
 80007c0:	e7f9      	b.n	80007b6 <main+0x256>
 80007c2:	bf00      	nop
 80007c4:	40021000 	.word	0x40021000
 80007c8:	48000800 	.word	0x48000800
 80007cc:	48000400 	.word	0x48000400
 80007d0:	200002dc 	.word	0x200002dc
 80007d4:	40004400 	.word	0x40004400
 80007d8:	200001dc 	.word	0x200001dc
 80007dc:	40007400 	.word	0x40007400
 80007e0:	20000244 	.word	0x20000244
 80007e4:	40014000 	.word	0x40014000
 80007e8:	200001f0 	.word	0x200001f0
 80007ec:	40005400 	.word	0x40005400
 80007f0:	10909cec 	.word	0x10909cec
 80007f4:	20000290 	.word	0x20000290
 80007f8:	40014400 	.word	0x40014400

080007fc <HAL_GPIO_EXTI_Callback>:
	switch (GPIO_Pin) {
 80007fc:	2840      	cmp	r0, #64	; 0x40
void HAL_GPIO_EXTI_Callback(uint16_t GPIO_Pin){
 80007fe:	b508      	push	{r3, lr}
 8000800:	4601      	mov	r1, r0
	switch (GPIO_Pin) {
 8000802:	f000 80a0 	beq.w	8000946 <HAL_GPIO_EXTI_Callback+0x14a>
 8000806:	d817      	bhi.n	8000838 <HAL_GPIO_EXTI_Callback+0x3c>
 8000808:	1e41      	subs	r1, r0, #1
 800080a:	b28b      	uxth	r3, r1
 800080c:	2b1f      	cmp	r3, #31
 800080e:	d829      	bhi.n	8000864 <HAL_GPIO_EXTI_Callback+0x68>
 8000810:	291f      	cmp	r1, #31
 8000812:	d827      	bhi.n	8000864 <HAL_GPIO_EXTI_Callback+0x68>
 8000814:	e8df f001 	tbb	[pc, r1]
 8000818:	5e265245 	.word	0x5e265245
 800081c:	6a262626 	.word	0x6a262626
 8000820:	26262626 	.word	0x26262626
 8000824:	76262626 	.word	0x76262626
 8000828:	26262626 	.word	0x26262626
 800082c:	26262626 	.word	0x26262626
 8000830:	26262626 	.word	0x26262626
 8000834:	38262626 	.word	0x38262626
 8000838:	f5b0 7f00 	cmp.w	r0, #512	; 0x200
 800083c:	f000 808d 	beq.w	800095a <HAL_GPIO_EXTI_Callback+0x15e>
 8000840:	d911      	bls.n	8000866 <HAL_GPIO_EXTI_Callback+0x6a>
 8000842:	f5b0 6f80 	cmp.w	r0, #1024	; 0x400
 8000846:	d069      	beq.n	800091c <HAL_GPIO_EXTI_Callback+0x120>
 8000848:	f5b0 6f00 	cmp.w	r0, #2048	; 0x800
 800084c:	d10a      	bne.n	8000864 <HAL_GPIO_EXTI_Callback+0x68>
		if(HAL_GPIO_ReadPin(NOTE_12_GPIO_Port, NOTE_12_Pin) == 0)
 800084e:	4860      	ldr	r0, [pc, #384]	; (80009d0 <HAL_GPIO_EXTI_Callback+0x1d4>)
 8000850:	f001 ffd0 	bl	80027f4 <HAL_GPIO_ReadPin>
 8000854:	2800      	cmp	r0, #0
 8000856:	f040 809a 	bne.w	800098e <HAL_GPIO_EXTI_Callback+0x192>
			active[NOTE_B] = 1;
 800085a:	495e      	ldr	r1, [pc, #376]	; (80009d4 <HAL_GPIO_EXTI_Callback+0x1d8>)
			sustain_B = 1;
 800085c:	4a5e      	ldr	r2, [pc, #376]	; (80009d8 <HAL_GPIO_EXTI_Callback+0x1dc>)
			active[NOTE_B] = 1;
 800085e:	2301      	movs	r3, #1
 8000860:	62cb      	str	r3, [r1, #44]	; 0x2c
			sustain_B = 1;
 8000862:	6013      	str	r3, [r2, #0]
}
 8000864:	bd08      	pop	{r3, pc}
	switch (GPIO_Pin) {
 8000866:	2880      	cmp	r0, #128	; 0x80
 8000868:	d063      	beq.n	8000932 <HAL_GPIO_EXTI_Callback+0x136>
 800086a:	f5b0 7f80 	cmp.w	r0, #256	; 0x100
 800086e:	d1f9      	bne.n	8000864 <HAL_GPIO_EXTI_Callback+0x68>
		if(HAL_GPIO_ReadPin(NOTE_9_GPIO_Port, NOTE_9_Pin) == 0)
 8000870:	4857      	ldr	r0, [pc, #348]	; (80009d0 <HAL_GPIO_EXTI_Callback+0x1d4>)
 8000872:	f001 ffbf 	bl	80027f4 <HAL_GPIO_ReadPin>
 8000876:	2800      	cmp	r0, #0
 8000878:	f040 808d 	bne.w	8000996 <HAL_GPIO_EXTI_Callback+0x19a>
			active[NOTE_Gs] = 1;
 800087c:	4955      	ldr	r1, [pc, #340]	; (80009d4 <HAL_GPIO_EXTI_Callback+0x1d8>)
			sustain_Gs = 1;
 800087e:	4a57      	ldr	r2, [pc, #348]	; (80009dc <HAL_GPIO_EXTI_Callback+0x1e0>)
			active[NOTE_Gs] = 1;
 8000880:	2301      	movs	r3, #1
 8000882:	620b      	str	r3, [r1, #32]
			sustain_Gs = 1;
 8000884:	6013      	str	r3, [r2, #0]
}
 8000886:	bd08      	pop	{r3, pc}
		if(HAL_GPIO_ReadPin(NOTE_6_GPIO_Port, NOTE_6_Pin) == 0)
 8000888:	4851      	ldr	r0, [pc, #324]	; (80009d0 <HAL_GPIO_EXTI_Callback+0x1d4>)
 800088a:	2120      	movs	r1, #32
 800088c:	f001 ffb2 	bl	80027f4 <HAL_GPIO_ReadPin>
 8000890:	2800      	cmp	r0, #0
 8000892:	f040 8098 	bne.w	80009c6 <HAL_GPIO_EXTI_Callback+0x1ca>
			active[NOTE_F] = 1;
 8000896:	494f      	ldr	r1, [pc, #316]	; (80009d4 <HAL_GPIO_EXTI_Callback+0x1d8>)
			sustain_F = 1;
 8000898:	4a51      	ldr	r2, [pc, #324]	; (80009e0 <HAL_GPIO_EXTI_Callback+0x1e4>)
			active[NOTE_F] = 1;
 800089a:	2301      	movs	r3, #1
 800089c:	614b      	str	r3, [r1, #20]
			sustain_F = 1;
 800089e:	6013      	str	r3, [r2, #0]
}
 80008a0:	bd08      	pop	{r3, pc}
		if(HAL_GPIO_ReadPin(NOTE_1_GPIO_Port, NOTE_1_Pin) == 0)
 80008a2:	484b      	ldr	r0, [pc, #300]	; (80009d0 <HAL_GPIO_EXTI_Callback+0x1d4>)
 80008a4:	2101      	movs	r1, #1
 80008a6:	f001 ffa5 	bl	80027f4 <HAL_GPIO_ReadPin>
 80008aa:	2800      	cmp	r0, #0
 80008ac:	f040 8087 	bne.w	80009be <HAL_GPIO_EXTI_Callback+0x1c2>
			active[NOTE_C] = 1;
 80008b0:	4948      	ldr	r1, [pc, #288]	; (80009d4 <HAL_GPIO_EXTI_Callback+0x1d8>)
			sustain_C = 1; // set flag for sustaining note. flag is reset in the sustain.c file after ~ 10s.
 80008b2:	4a4c      	ldr	r2, [pc, #304]	; (80009e4 <HAL_GPIO_EXTI_Callback+0x1e8>)
			active[NOTE_C] = 1;
 80008b4:	2301      	movs	r3, #1
 80008b6:	600b      	str	r3, [r1, #0]
			sustain_C = 1; // set flag for sustaining note. flag is reset in the sustain.c file after ~ 10s.
 80008b8:	6013      	str	r3, [r2, #0]
}
 80008ba:	bd08      	pop	{r3, pc}
		if(HAL_GPIO_ReadPin(NOTE_2_GPIO_Port, NOTE_2_Pin) == 0)
 80008bc:	4844      	ldr	r0, [pc, #272]	; (80009d0 <HAL_GPIO_EXTI_Callback+0x1d4>)
 80008be:	2102      	movs	r1, #2
 80008c0:	f001 ff98 	bl	80027f4 <HAL_GPIO_ReadPin>
 80008c4:	2800      	cmp	r0, #0
 80008c6:	d176      	bne.n	80009b6 <HAL_GPIO_EXTI_Callback+0x1ba>
			active[NOTE_Cs] = 1;
 80008c8:	4942      	ldr	r1, [pc, #264]	; (80009d4 <HAL_GPIO_EXTI_Callback+0x1d8>)
			sustain_Cs = 1;
 80008ca:	4a47      	ldr	r2, [pc, #284]	; (80009e8 <HAL_GPIO_EXTI_Callback+0x1ec>)
			active[NOTE_Cs] = 1;
 80008cc:	2301      	movs	r3, #1
 80008ce:	604b      	str	r3, [r1, #4]
			sustain_Cs = 1;
 80008d0:	6013      	str	r3, [r2, #0]
}
 80008d2:	bd08      	pop	{r3, pc}
		if(HAL_GPIO_ReadPin(NOTE_3_GPIO_Port, NOTE_3_Pin) == 0)
 80008d4:	483e      	ldr	r0, [pc, #248]	; (80009d0 <HAL_GPIO_EXTI_Callback+0x1d4>)
 80008d6:	2104      	movs	r1, #4
 80008d8:	f001 ff8c 	bl	80027f4 <HAL_GPIO_ReadPin>
 80008dc:	2800      	cmp	r0, #0
 80008de:	d166      	bne.n	80009ae <HAL_GPIO_EXTI_Callback+0x1b2>
			active[NOTE_D] = 1;
 80008e0:	493c      	ldr	r1, [pc, #240]	; (80009d4 <HAL_GPIO_EXTI_Callback+0x1d8>)
			sustain_D = 1;
 80008e2:	4a42      	ldr	r2, [pc, #264]	; (80009ec <HAL_GPIO_EXTI_Callback+0x1f0>)
			active[NOTE_D] = 1;
 80008e4:	2301      	movs	r3, #1
 80008e6:	608b      	str	r3, [r1, #8]
			sustain_D = 1;
 80008e8:	6013      	str	r3, [r2, #0]
}
 80008ea:	bd08      	pop	{r3, pc}
		if(HAL_GPIO_ReadPin(NOTE_4_GPIO_Port, NOTE_4_Pin) == 0)
 80008ec:	4838      	ldr	r0, [pc, #224]	; (80009d0 <HAL_GPIO_EXTI_Callback+0x1d4>)
 80008ee:	2108      	movs	r1, #8
 80008f0:	f001 ff80 	bl	80027f4 <HAL_GPIO_ReadPin>
 80008f4:	2800      	cmp	r0, #0
 80008f6:	d156      	bne.n	80009a6 <HAL_GPIO_EXTI_Callback+0x1aa>
			active[NOTE_Ds] = 1;
 80008f8:	4936      	ldr	r1, [pc, #216]	; (80009d4 <HAL_GPIO_EXTI_Callback+0x1d8>)
			sustain_Ds = 1;
 80008fa:	4a3d      	ldr	r2, [pc, #244]	; (80009f0 <HAL_GPIO_EXTI_Callback+0x1f4>)
			active[NOTE_Ds] = 1;
 80008fc:	2301      	movs	r3, #1
 80008fe:	60cb      	str	r3, [r1, #12]
			sustain_Ds = 1;
 8000900:	6013      	str	r3, [r2, #0]
}
 8000902:	bd08      	pop	{r3, pc}
		if(HAL_GPIO_ReadPin(NOTE_5_GPIO_Port, NOTE_5_Pin) == 0)
 8000904:	4832      	ldr	r0, [pc, #200]	; (80009d0 <HAL_GPIO_EXTI_Callback+0x1d4>)
 8000906:	2110      	movs	r1, #16
 8000908:	f001 ff74 	bl	80027f4 <HAL_GPIO_ReadPin>
 800090c:	2800      	cmp	r0, #0
 800090e:	d146      	bne.n	800099e <HAL_GPIO_EXTI_Callback+0x1a2>
			active[NOTE_E] = 1;
 8000910:	4930      	ldr	r1, [pc, #192]	; (80009d4 <HAL_GPIO_EXTI_Callback+0x1d8>)
			sustain_E = 1;
 8000912:	4a38      	ldr	r2, [pc, #224]	; (80009f4 <HAL_GPIO_EXTI_Callback+0x1f8>)
			active[NOTE_E] = 1;
 8000914:	2301      	movs	r3, #1
 8000916:	610b      	str	r3, [r1, #16]
			sustain_E = 1;
 8000918:	6013      	str	r3, [r2, #0]
}
 800091a:	bd08      	pop	{r3, pc}
		if(HAL_GPIO_ReadPin(NOTE_11_GPIO_Port, NOTE_11_Pin) == 0)
 800091c:	482c      	ldr	r0, [pc, #176]	; (80009d0 <HAL_GPIO_EXTI_Callback+0x1d4>)
 800091e:	f001 ff69 	bl	80027f4 <HAL_GPIO_ReadPin>
 8000922:	2800      	cmp	r0, #0
 8000924:	d12f      	bne.n	8000986 <HAL_GPIO_EXTI_Callback+0x18a>
			active[NOTE_As] = 1;
 8000926:	492b      	ldr	r1, [pc, #172]	; (80009d4 <HAL_GPIO_EXTI_Callback+0x1d8>)
			sustain_As = 1;
 8000928:	4a33      	ldr	r2, [pc, #204]	; (80009f8 <HAL_GPIO_EXTI_Callback+0x1fc>)
			active[NOTE_As] = 1;
 800092a:	2301      	movs	r3, #1
 800092c:	628b      	str	r3, [r1, #40]	; 0x28
			sustain_As = 1;
 800092e:	6013      	str	r3, [r2, #0]
}
 8000930:	bd08      	pop	{r3, pc}
		if(HAL_GPIO_ReadPin(NOTE_8_GPIO_Port, NOTE_8_Pin) == 0)
 8000932:	4827      	ldr	r0, [pc, #156]	; (80009d0 <HAL_GPIO_EXTI_Callback+0x1d4>)
 8000934:	f001 ff5e 	bl	80027f4 <HAL_GPIO_ReadPin>
 8000938:	bb08      	cbnz	r0, 800097e <HAL_GPIO_EXTI_Callback+0x182>
			active[NOTE_G] = 1;
 800093a:	4926      	ldr	r1, [pc, #152]	; (80009d4 <HAL_GPIO_EXTI_Callback+0x1d8>)
			sustain_G = 1;
 800093c:	4a2f      	ldr	r2, [pc, #188]	; (80009fc <HAL_GPIO_EXTI_Callback+0x200>)
			active[NOTE_G] = 1;
 800093e:	2301      	movs	r3, #1
 8000940:	61cb      	str	r3, [r1, #28]
			sustain_G = 1;
 8000942:	6013      	str	r3, [r2, #0]
}
 8000944:	bd08      	pop	{r3, pc}
		if(HAL_GPIO_ReadPin(NOTE_7_GPIO_Port, NOTE_7_Pin) == 0)
 8000946:	4822      	ldr	r0, [pc, #136]	; (80009d0 <HAL_GPIO_EXTI_Callback+0x1d4>)
 8000948:	f001 ff54 	bl	80027f4 <HAL_GPIO_ReadPin>
 800094c:	b998      	cbnz	r0, 8000976 <HAL_GPIO_EXTI_Callback+0x17a>
			active[NOTE_Fs] = 1;
 800094e:	4921      	ldr	r1, [pc, #132]	; (80009d4 <HAL_GPIO_EXTI_Callback+0x1d8>)
			sustain_Fs = 1;
 8000950:	4a2b      	ldr	r2, [pc, #172]	; (8000a00 <HAL_GPIO_EXTI_Callback+0x204>)
			active[NOTE_Fs] = 1;
 8000952:	2301      	movs	r3, #1
 8000954:	618b      	str	r3, [r1, #24]
			sustain_Fs = 1;
 8000956:	6013      	str	r3, [r2, #0]
}
 8000958:	bd08      	pop	{r3, pc}
		if(HAL_GPIO_ReadPin(NOTE_10_GPIO_Port, NOTE_10_Pin) == 0)
 800095a:	481d      	ldr	r0, [pc, #116]	; (80009d0 <HAL_GPIO_EXTI_Callback+0x1d4>)
 800095c:	f001 ff4a 	bl	80027f4 <HAL_GPIO_ReadPin>
 8000960:	b928      	cbnz	r0, 800096e <HAL_GPIO_EXTI_Callback+0x172>
			active[NOTE_A] = 1;
 8000962:	491c      	ldr	r1, [pc, #112]	; (80009d4 <HAL_GPIO_EXTI_Callback+0x1d8>)
			sustain_A = 1;
 8000964:	4a27      	ldr	r2, [pc, #156]	; (8000a04 <HAL_GPIO_EXTI_Callback+0x208>)
			active[NOTE_A] = 1;
 8000966:	2301      	movs	r3, #1
 8000968:	624b      	str	r3, [r1, #36]	; 0x24
			sustain_A = 1;
 800096a:	6013      	str	r3, [r2, #0]
}
 800096c:	bd08      	pop	{r3, pc}
			active[NOTE_A] = 0;
 800096e:	4b19      	ldr	r3, [pc, #100]	; (80009d4 <HAL_GPIO_EXTI_Callback+0x1d8>)
 8000970:	2200      	movs	r2, #0
 8000972:	625a      	str	r2, [r3, #36]	; 0x24
}
 8000974:	bd08      	pop	{r3, pc}
			active[NOTE_Fs] = 0;
 8000976:	4b17      	ldr	r3, [pc, #92]	; (80009d4 <HAL_GPIO_EXTI_Callback+0x1d8>)
 8000978:	2200      	movs	r2, #0
 800097a:	619a      	str	r2, [r3, #24]
}
 800097c:	bd08      	pop	{r3, pc}
			active[NOTE_G] = 0;
 800097e:	4b15      	ldr	r3, [pc, #84]	; (80009d4 <HAL_GPIO_EXTI_Callback+0x1d8>)
 8000980:	2200      	movs	r2, #0
 8000982:	61da      	str	r2, [r3, #28]
}
 8000984:	bd08      	pop	{r3, pc}
			active[NOTE_As] = 0;
 8000986:	4b13      	ldr	r3, [pc, #76]	; (80009d4 <HAL_GPIO_EXTI_Callback+0x1d8>)
 8000988:	2200      	movs	r2, #0
 800098a:	629a      	str	r2, [r3, #40]	; 0x28
}
 800098c:	bd08      	pop	{r3, pc}
			active[NOTE_B] = 0;
 800098e:	4b11      	ldr	r3, [pc, #68]	; (80009d4 <HAL_GPIO_EXTI_Callback+0x1d8>)
 8000990:	2200      	movs	r2, #0
 8000992:	62da      	str	r2, [r3, #44]	; 0x2c
}
 8000994:	bd08      	pop	{r3, pc}
			active[NOTE_Gs] = 0;
 8000996:	4b0f      	ldr	r3, [pc, #60]	; (80009d4 <HAL_GPIO_EXTI_Callback+0x1d8>)
 8000998:	2200      	movs	r2, #0
 800099a:	621a      	str	r2, [r3, #32]
}
 800099c:	bd08      	pop	{r3, pc}
			active[NOTE_E] = 0;
 800099e:	4b0d      	ldr	r3, [pc, #52]	; (80009d4 <HAL_GPIO_EXTI_Callback+0x1d8>)
 80009a0:	2200      	movs	r2, #0
 80009a2:	611a      	str	r2, [r3, #16]
}
 80009a4:	bd08      	pop	{r3, pc}
			active[NOTE_Ds] = 0;
 80009a6:	4b0b      	ldr	r3, [pc, #44]	; (80009d4 <HAL_GPIO_EXTI_Callback+0x1d8>)
 80009a8:	2200      	movs	r2, #0
 80009aa:	60da      	str	r2, [r3, #12]
}
 80009ac:	bd08      	pop	{r3, pc}
			active[NOTE_D] = 0;
 80009ae:	4b09      	ldr	r3, [pc, #36]	; (80009d4 <HAL_GPIO_EXTI_Callback+0x1d8>)
 80009b0:	2200      	movs	r2, #0
 80009b2:	609a      	str	r2, [r3, #8]
}
 80009b4:	bd08      	pop	{r3, pc}
			active[NOTE_Cs] = 0;
 80009b6:	4b07      	ldr	r3, [pc, #28]	; (80009d4 <HAL_GPIO_EXTI_Callback+0x1d8>)
 80009b8:	2200      	movs	r2, #0
 80009ba:	605a      	str	r2, [r3, #4]
}
 80009bc:	bd08      	pop	{r3, pc}
			active[NOTE_C] = 0;
 80009be:	4b05      	ldr	r3, [pc, #20]	; (80009d4 <HAL_GPIO_EXTI_Callback+0x1d8>)
 80009c0:	2200      	movs	r2, #0
 80009c2:	601a      	str	r2, [r3, #0]
}
 80009c4:	bd08      	pop	{r3, pc}
			active[NOTE_F] = 0;
 80009c6:	4b03      	ldr	r3, [pc, #12]	; (80009d4 <HAL_GPIO_EXTI_Callback+0x1d8>)
 80009c8:	2200      	movs	r2, #0
 80009ca:	615a      	str	r2, [r3, #20]
}
 80009cc:	bd08      	pop	{r3, pc}
 80009ce:	bf00      	nop
 80009d0:	48000800 	.word	0x48000800
 80009d4:	200001ac 	.word	0x200001ac
 80009d8:	2000039c 	.word	0x2000039c
 80009dc:	200003c0 	.word	0x200003c0
 80009e0:	200003b4 	.word	0x200003b4
 80009e4:	200003a0 	.word	0x200003a0
 80009e8:	200003a4 	.word	0x200003a4
 80009ec:	200003a8 	.word	0x200003a8
 80009f0:	200003ac 	.word	0x200003ac
 80009f4:	200003b0 	.word	0x200003b0
 80009f8:	20000398 	.word	0x20000398
 80009fc:	200003bc 	.word	0x200003bc
 8000a00:	200003b8 	.word	0x200003b8
 8000a04:	20000394 	.word	0x20000394

08000a08 <HAL_TIM_PeriodElapsedCallback>:
	if(htim == &htim16 )
 8000a08:	4b0e      	ldr	r3, [pc, #56]	; (8000a44 <HAL_TIM_PeriodElapsedCallback+0x3c>)
 8000a0a:	4298      	cmp	r0, r3
 8000a0c:	d003      	beq.n	8000a16 <HAL_TIM_PeriodElapsedCallback+0xe>
	if (htim == &htim15 )
 8000a0e:	4b0e      	ldr	r3, [pc, #56]	; (8000a48 <HAL_TIM_PeriodElapsedCallback+0x40>)
 8000a10:	4298      	cmp	r0, r3
 8000a12:	d002      	beq.n	8000a1a <HAL_TIM_PeriodElapsedCallback+0x12>
 8000a14:	4770      	bx	lr
		update_decay_values();
 8000a16:	f000 be0d 	b.w	8001634 <update_decay_values>
{
 8000a1a:	b500      	push	{lr}
 8000a1c:	b083      	sub	sp, #12
		int wave = tranposition__note_update();
 8000a1e:	f001 f97d 	bl	8001d1c <tranposition__note_update>
		HAL_DAC_SetValue(&hdac1, DAC_CHANNEL_2, DAC_ALIGN_12B_R, wave);
 8000a22:	2200      	movs	r2, #0
		int wave = tranposition__note_update();
 8000a24:	4603      	mov	r3, r0
		HAL_DAC_SetValue(&hdac1, DAC_CHANNEL_2, DAC_ALIGN_12B_R, wave);
 8000a26:	2110      	movs	r1, #16
 8000a28:	4808      	ldr	r0, [pc, #32]	; (8000a4c <HAL_TIM_PeriodElapsedCallback+0x44>)
 8000a2a:	9301      	str	r3, [sp, #4]
 8000a2c:	f001 fcae 	bl	800238c <HAL_DAC_SetValue>
		HAL_DAC_SetValue(&hdac1, DAC_CHANNEL_1, DAC_ALIGN_12B_R, wave);
 8000a30:	2200      	movs	r2, #0
 8000a32:	9b01      	ldr	r3, [sp, #4]
 8000a34:	4805      	ldr	r0, [pc, #20]	; (8000a4c <HAL_TIM_PeriodElapsedCallback+0x44>)
 8000a36:	4611      	mov	r1, r2
}
 8000a38:	b003      	add	sp, #12
 8000a3a:	f85d eb04 	ldr.w	lr, [sp], #4
		HAL_DAC_SetValue(&hdac1, DAC_CHANNEL_1, DAC_ALIGN_12B_R, wave);
 8000a3e:	f001 bca5 	b.w	800238c <HAL_DAC_SetValue>
 8000a42:	bf00      	nop
 8000a44:	20000290 	.word	0x20000290
 8000a48:	20000244 	.word	0x20000244
 8000a4c:	200001dc 	.word	0x200001dc

08000a50 <Error_Handler>:
 8000a50:	b672      	cpsid	i
  while (1)
 8000a52:	e7fe      	b.n	8000a52 <Error_Handler+0x2>

08000a54 <menu_init>:

char buffer[33];

int sustain_flag = 0;

void menu_init(void) {
 8000a54:	b538      	push	{r3, r4, r5, lr}
    current_menu_item = MENU_ITEM_SUSTAIN;
 8000a56:	4c2e      	ldr	r4, [pc, #184]	; (8000b10 <menu_init+0xbc>)
 8000a58:	2303      	movs	r3, #3
 8000a5a:	7023      	strb	r3, [r4, #0]
    current_setting_value = 0;
    lcd_init();
 8000a5c:	f000 f976 	bl	8000d4c <lcd_init>
    }
    menu_update_display();
}

void menu_update_display(void) {
    lcd_clear();
 8000a60:	f000 fc16 	bl	8001290 <lcd_clear>
    switch (current_menu_item) {
 8000a64:	7823      	ldrb	r3, [r4, #0]
 8000a66:	2b04      	cmp	r3, #4
 8000a68:	d851      	bhi.n	8000b0e <menu_init+0xba>
 8000a6a:	e8df f003 	tbb	[pc, r3]
 8000a6e:	2515      	.short	0x2515
 8000a70:	3634      	.short	0x3634
 8000a72:	03          	.byte	0x03
 8000a73:	00          	.byte	0x00
            }
            lcd_set_cursor(0, 0);
            lcd_write_multiline_string(buffer);
            break;
        case MENU_ITEM_TRANSPOSITION:
            snprintf(buffer, sizeof(buffer), "Transposition:  up inc, down dec");
 8000a74:	4d27      	ldr	r5, [pc, #156]	; (8000b14 <menu_init+0xc0>)
 8000a76:	4c28      	ldr	r4, [pc, #160]	; (8000b18 <menu_init+0xc4>)
 8000a78:	cd0f      	ldmia	r5!, {r0, r1, r2, r3}
 8000a7a:	c40f      	stmia	r4!, {r0, r1, r2, r3}
 8000a7c:	cd0f      	ldmia	r5!, {r0, r1, r2, r3}
 8000a7e:	c40f      	stmia	r4!, {r0, r1, r2, r3}
 8000a80:	682b      	ldr	r3, [r5, #0]
 8000a82:	7023      	strb	r3, [r4, #0]
            lcd_set_cursor(0, 0);
 8000a84:	2100      	movs	r1, #0
 8000a86:	4608      	mov	r0, r1
 8000a88:	f000 fbac 	bl	80011e4 <lcd_set_cursor>
            lcd_write_multiline_string(buffer);
 8000a8c:	f1a4 0020 	sub.w	r0, r4, #32
}
 8000a90:	e8bd 4038 	ldmia.w	sp!, {r3, r4, r5, lr}
            lcd_write_multiline_string(buffer);
 8000a94:	f000 baec 	b.w	8001070 <lcd_write_multiline_string>
            snprintf(buffer, sizeof(buffer), "Octave: ");
 8000a98:	4b20      	ldr	r3, [pc, #128]	; (8000b1c <menu_init+0xc8>)
 8000a9a:	4c1f      	ldr	r4, [pc, #124]	; (8000b18 <menu_init+0xc4>)
 8000a9c:	e893 0007 	ldmia.w	r3, {r0, r1, r2}
 8000aa0:	c403      	stmia	r4!, {r0, r1}
            lcd_set_cursor(0, 0);
 8000aa2:	2100      	movs	r1, #0
 8000aa4:	4608      	mov	r0, r1
            snprintf(buffer, sizeof(buffer), "Octave: ");
 8000aa6:	7022      	strb	r2, [r4, #0]
            lcd_set_cursor(0, 0);
 8000aa8:	f000 fb9c 	bl	80011e4 <lcd_set_cursor>
            lcd_write_multiline_string(buffer);
 8000aac:	f1a4 0008 	sub.w	r0, r4, #8
}
 8000ab0:	e8bd 4038 	ldmia.w	sp!, {r3, r4, r5, lr}
            lcd_write_multiline_string(buffer);
 8000ab4:	f000 badc 	b.w	8001070 <lcd_write_multiline_string>
            snprintf(buffer, sizeof(buffer), "Instrument: ");
 8000ab8:	4b19      	ldr	r3, [pc, #100]	; (8000b20 <menu_init+0xcc>)
            snprintf(buffer, sizeof(buffer), "Echo/Delay: ");
 8000aba:	4c17      	ldr	r4, [pc, #92]	; (8000b18 <menu_init+0xc4>)
 8000abc:	cb0f      	ldmia	r3, {r0, r1, r2, r3}
 8000abe:	c407      	stmia	r4!, {r0, r1, r2}
            lcd_set_cursor(0, 0);
 8000ac0:	2100      	movs	r1, #0
 8000ac2:	4608      	mov	r0, r1
            snprintf(buffer, sizeof(buffer), "Echo/Delay: ");
 8000ac4:	7023      	strb	r3, [r4, #0]
            lcd_set_cursor(0, 0);
 8000ac6:	f000 fb8d 	bl	80011e4 <lcd_set_cursor>
            lcd_write_multiline_string(buffer);
 8000aca:	f1a4 000c 	sub.w	r0, r4, #12
}
 8000ace:	e8bd 4038 	ldmia.w	sp!, {r3, r4, r5, lr}
            lcd_write_multiline_string(buffer);
 8000ad2:	f000 bacd 	b.w	8001070 <lcd_write_multiline_string>
            snprintf(buffer, sizeof(buffer), "Echo/Delay: ");
 8000ad6:	4b13      	ldr	r3, [pc, #76]	; (8000b24 <menu_init+0xd0>)
 8000ad8:	e7ef      	b.n	8000aba <menu_init+0x66>
            if (sustain_flag) {
 8000ada:	4b13      	ldr	r3, [pc, #76]	; (8000b28 <menu_init+0xd4>)
 8000adc:	681b      	ldr	r3, [r3, #0]
 8000ade:	b183      	cbz	r3, 8000b02 <menu_init+0xae>
                snprintf(buffer, sizeof(buffer), "Sustain: ON 10s duration");
 8000ae0:	4d12      	ldr	r5, [pc, #72]	; (8000b2c <menu_init+0xd8>)
 8000ae2:	4c0d      	ldr	r4, [pc, #52]	; (8000b18 <menu_init+0xc4>)
 8000ae4:	cd0f      	ldmia	r5!, {r0, r1, r2, r3}
 8000ae6:	c40f      	stmia	r4!, {r0, r1, r2, r3}
 8000ae8:	e895 0007 	ldmia.w	r5, {r0, r1, r2}
 8000aec:	c403      	stmia	r4!, {r0, r1}
 8000aee:	7022      	strb	r2, [r4, #0]
            lcd_set_cursor(0, 0);
 8000af0:	2100      	movs	r1, #0
 8000af2:	4608      	mov	r0, r1
 8000af4:	f000 fb76 	bl	80011e4 <lcd_set_cursor>
}
 8000af8:	e8bd 4038 	ldmia.w	sp!, {r3, r4, r5, lr}
            lcd_write_multiline_string(buffer);
 8000afc:	4806      	ldr	r0, [pc, #24]	; (8000b18 <menu_init+0xc4>)
 8000afe:	f000 bab7 	b.w	8001070 <lcd_write_multiline_string>
                snprintf(buffer, sizeof(buffer), "Sustain: OFF");
 8000b02:	4b0b      	ldr	r3, [pc, #44]	; (8000b30 <menu_init+0xdc>)
 8000b04:	4c04      	ldr	r4, [pc, #16]	; (8000b18 <menu_init+0xc4>)
 8000b06:	cb0f      	ldmia	r3, {r0, r1, r2, r3}
 8000b08:	c407      	stmia	r4!, {r0, r1, r2}
 8000b0a:	7023      	strb	r3, [r4, #0]
 8000b0c:	e7f0      	b.n	8000af0 <menu_init+0x9c>
}
 8000b0e:	bd38      	pop	{r3, r4, r5, pc}
 8000b10:	200003e5 	.word	0x200003e5
 8000b14:	08004d34 	.word	0x08004d34
 8000b18:	200003c4 	.word	0x200003c4
 8000b1c:	08004cdc 	.word	0x08004cdc
 8000b20:	08004ce8 	.word	0x08004ce8
 8000b24:	08004cf8 	.word	0x08004cf8
 8000b28:	200003e8 	.word	0x200003e8
 8000b2c:	08004d08 	.word	0x08004d08
 8000b30:	08004d24 	.word	0x08004d24

08000b34 <menu_update_display>:
void menu_update_display(void) {
 8000b34:	b538      	push	{r3, r4, r5, lr}
    lcd_clear();
 8000b36:	f000 fbab 	bl	8001290 <lcd_clear>
    switch (current_menu_item) {
 8000b3a:	4b2b      	ldr	r3, [pc, #172]	; (8000be8 <menu_update_display+0xb4>)
 8000b3c:	781b      	ldrb	r3, [r3, #0]
 8000b3e:	2b04      	cmp	r3, #4
 8000b40:	d851      	bhi.n	8000be6 <menu_update_display+0xb2>
 8000b42:	e8df f003 	tbb	[pc, r3]
 8000b46:	2515      	.short	0x2515
 8000b48:	3634      	.short	0x3634
 8000b4a:	03          	.byte	0x03
 8000b4b:	00          	.byte	0x00
            snprintf(buffer, sizeof(buffer), "Transposition:  up inc, down dec");
 8000b4c:	4d27      	ldr	r5, [pc, #156]	; (8000bec <menu_update_display+0xb8>)
 8000b4e:	4c28      	ldr	r4, [pc, #160]	; (8000bf0 <menu_update_display+0xbc>)
 8000b50:	cd0f      	ldmia	r5!, {r0, r1, r2, r3}
 8000b52:	c40f      	stmia	r4!, {r0, r1, r2, r3}
 8000b54:	cd0f      	ldmia	r5!, {r0, r1, r2, r3}
 8000b56:	c40f      	stmia	r4!, {r0, r1, r2, r3}
            lcd_set_cursor(0, 0);
 8000b58:	2100      	movs	r1, #0
            snprintf(buffer, sizeof(buffer), "Transposition:  up inc, down dec");
 8000b5a:	682b      	ldr	r3, [r5, #0]
 8000b5c:	7023      	strb	r3, [r4, #0]
            lcd_set_cursor(0, 0);
 8000b5e:	4608      	mov	r0, r1
 8000b60:	f000 fb40 	bl	80011e4 <lcd_set_cursor>
            lcd_write_multiline_string(buffer);
 8000b64:	f1a4 0020 	sub.w	r0, r4, #32
            break;
        default:
            break;
    }
}
 8000b68:	e8bd 4038 	ldmia.w	sp!, {r3, r4, r5, lr}
            lcd_write_multiline_string(buffer);
 8000b6c:	f000 ba80 	b.w	8001070 <lcd_write_multiline_string>
            snprintf(buffer, sizeof(buffer), "Octave: ");
 8000b70:	4b20      	ldr	r3, [pc, #128]	; (8000bf4 <menu_update_display+0xc0>)
 8000b72:	4c1f      	ldr	r4, [pc, #124]	; (8000bf0 <menu_update_display+0xbc>)
 8000b74:	e893 0007 	ldmia.w	r3, {r0, r1, r2}
 8000b78:	c403      	stmia	r4!, {r0, r1}
            lcd_set_cursor(0, 0);
 8000b7a:	2100      	movs	r1, #0
 8000b7c:	4608      	mov	r0, r1
            snprintf(buffer, sizeof(buffer), "Octave: ");
 8000b7e:	7022      	strb	r2, [r4, #0]
            lcd_set_cursor(0, 0);
 8000b80:	f000 fb30 	bl	80011e4 <lcd_set_cursor>
            lcd_write_multiline_string(buffer);
 8000b84:	f1a4 0008 	sub.w	r0, r4, #8
}
 8000b88:	e8bd 4038 	ldmia.w	sp!, {r3, r4, r5, lr}
            lcd_write_multiline_string(buffer);
 8000b8c:	f000 ba70 	b.w	8001070 <lcd_write_multiline_string>
            snprintf(buffer, sizeof(buffer), "Instrument: ");
 8000b90:	4b19      	ldr	r3, [pc, #100]	; (8000bf8 <menu_update_display+0xc4>)
            snprintf(buffer, sizeof(buffer), "Echo/Delay: ");
 8000b92:	4c17      	ldr	r4, [pc, #92]	; (8000bf0 <menu_update_display+0xbc>)
 8000b94:	cb0f      	ldmia	r3, {r0, r1, r2, r3}
 8000b96:	c407      	stmia	r4!, {r0, r1, r2}
            lcd_set_cursor(0, 0);
 8000b98:	2100      	movs	r1, #0
 8000b9a:	4608      	mov	r0, r1
            snprintf(buffer, sizeof(buffer), "Echo/Delay: ");
 8000b9c:	7023      	strb	r3, [r4, #0]
            lcd_set_cursor(0, 0);
 8000b9e:	f000 fb21 	bl	80011e4 <lcd_set_cursor>
            lcd_write_multiline_string(buffer);
 8000ba2:	f1a4 000c 	sub.w	r0, r4, #12
}
 8000ba6:	e8bd 4038 	ldmia.w	sp!, {r3, r4, r5, lr}
            lcd_write_multiline_string(buffer);
 8000baa:	f000 ba61 	b.w	8001070 <lcd_write_multiline_string>
            snprintf(buffer, sizeof(buffer), "Echo/Delay: ");
 8000bae:	4b13      	ldr	r3, [pc, #76]	; (8000bfc <menu_update_display+0xc8>)
 8000bb0:	e7ef      	b.n	8000b92 <menu_update_display+0x5e>
            if (sustain_flag) {
 8000bb2:	4b13      	ldr	r3, [pc, #76]	; (8000c00 <menu_update_display+0xcc>)
 8000bb4:	681b      	ldr	r3, [r3, #0]
 8000bb6:	b183      	cbz	r3, 8000bda <menu_update_display+0xa6>
                snprintf(buffer, sizeof(buffer), "Sustain: ON 10s duration");
 8000bb8:	4d12      	ldr	r5, [pc, #72]	; (8000c04 <menu_update_display+0xd0>)
 8000bba:	4c0d      	ldr	r4, [pc, #52]	; (8000bf0 <menu_update_display+0xbc>)
 8000bbc:	cd0f      	ldmia	r5!, {r0, r1, r2, r3}
 8000bbe:	c40f      	stmia	r4!, {r0, r1, r2, r3}
 8000bc0:	e895 0007 	ldmia.w	r5, {r0, r1, r2}
 8000bc4:	c403      	stmia	r4!, {r0, r1}
 8000bc6:	7022      	strb	r2, [r4, #0]
            lcd_set_cursor(0, 0);
 8000bc8:	2100      	movs	r1, #0
 8000bca:	4608      	mov	r0, r1
 8000bcc:	f000 fb0a 	bl	80011e4 <lcd_set_cursor>
}
 8000bd0:	e8bd 4038 	ldmia.w	sp!, {r3, r4, r5, lr}
            lcd_write_multiline_string(buffer);
 8000bd4:	4806      	ldr	r0, [pc, #24]	; (8000bf0 <menu_update_display+0xbc>)
 8000bd6:	f000 ba4b 	b.w	8001070 <lcd_write_multiline_string>
                snprintf(buffer, sizeof(buffer), "Sustain: OFF");
 8000bda:	4b0b      	ldr	r3, [pc, #44]	; (8000c08 <menu_update_display+0xd4>)
 8000bdc:	4c04      	ldr	r4, [pc, #16]	; (8000bf0 <menu_update_display+0xbc>)
 8000bde:	cb0f      	ldmia	r3, {r0, r1, r2, r3}
 8000be0:	c407      	stmia	r4!, {r0, r1, r2}
 8000be2:	7023      	strb	r3, [r4, #0]
 8000be4:	e7f0      	b.n	8000bc8 <menu_update_display+0x94>
}
 8000be6:	bd38      	pop	{r3, r4, r5, pc}
 8000be8:	200003e5 	.word	0x200003e5
 8000bec:	08004d34 	.word	0x08004d34
 8000bf0:	200003c4 	.word	0x200003c4
 8000bf4:	08004cdc 	.word	0x08004cdc
 8000bf8:	08004ce8 	.word	0x08004ce8
 8000bfc:	08004cf8 	.word	0x08004cf8
 8000c00:	200003e8 	.word	0x200003e8
 8000c04:	08004d08 	.word	0x08004d08
 8000c08:	08004d24 	.word	0x08004d24

08000c0c <poll_buttons>:

void poll_buttons(void) {
 8000c0c:	b510      	push	{r4, lr}
    if (HAL_GPIO_ReadPin(BUTTON_GPIO_PORT, BUTTON_UP_PIN) == GPIO_PIN_RESET) {
 8000c0e:	484c      	ldr	r0, [pc, #304]	; (8000d40 <poll_buttons+0x134>)
 8000c10:	f44f 5180 	mov.w	r1, #4096	; 0x1000
 8000c14:	f001 fdee 	bl	80027f4 <HAL_GPIO_ReadPin>
 8000c18:	2800      	cmp	r0, #0
 8000c1a:	d068      	beq.n	8000cee <poll_buttons+0xe2>
        while (HAL_GPIO_ReadPin(BUTTON_GPIO_PORT, BUTTON_UP_PIN) == GPIO_PIN_RESET) {
            HAL_Delay(100); // Debounce delay
        }
        menu_update_display();
    }
    if (HAL_GPIO_ReadPin(BUTTON_GPIO_PORT, BUTTON_DOWN_PIN) == GPIO_PIN_RESET) {
 8000c1c:	4848      	ldr	r0, [pc, #288]	; (8000d40 <poll_buttons+0x134>)
 8000c1e:	f44f 5100 	mov.w	r1, #8192	; 0x2000
 8000c22:	f001 fde7 	bl	80027f4 <HAL_GPIO_ReadPin>
 8000c26:	2800      	cmp	r0, #0
 8000c28:	d046      	beq.n	8000cb8 <poll_buttons+0xac>
        while (HAL_GPIO_ReadPin(BUTTON_GPIO_PORT, BUTTON_DOWN_PIN) == GPIO_PIN_RESET) {
            HAL_Delay(100); // Debounce delay
        }
        menu_update_display();
    }
    if (HAL_GPIO_ReadPin(BUTTON_GPIO_PORT, BUTTON_LEFT_PIN) == GPIO_PIN_RESET) {
 8000c2a:	4845      	ldr	r0, [pc, #276]	; (8000d40 <poll_buttons+0x134>)
 8000c2c:	f44f 4180 	mov.w	r1, #16384	; 0x4000
 8000c30:	f001 fde0 	bl	80027f4 <HAL_GPIO_ReadPin>
 8000c34:	b9c8      	cbnz	r0, 8000c6a <poll_buttons+0x5e>
    if (current_menu_item > 0) {
 8000c36:	4b43      	ldr	r3, [pc, #268]	; (8000d44 <poll_buttons+0x138>)
 8000c38:	781a      	ldrb	r2, [r3, #0]
 8000c3a:	2a00      	cmp	r2, #0
 8000c3c:	d139      	bne.n	8000cb2 <poll_buttons+0xa6>
        current_menu_item = MENU_ITEM_COUNT - 1;
 8000c3e:	2204      	movs	r2, #4
 8000c40:	701a      	strb	r2, [r3, #0]
    menu_update_display();
 8000c42:	f7ff ff77 	bl	8000b34 <menu_update_display>
        menu_handle_button_left();
        HAL_Delay(100);
 8000c46:	2064      	movs	r0, #100	; 0x64
 8000c48:	f001 fad2 	bl	80021f0 <HAL_Delay>
        while (HAL_GPIO_ReadPin(BUTTON_GPIO_PORT, BUTTON_LEFT_PIN) == GPIO_PIN_RESET) {
 8000c4c:	4c3c      	ldr	r4, [pc, #240]	; (8000d40 <poll_buttons+0x134>)
 8000c4e:	e001      	b.n	8000c54 <poll_buttons+0x48>
            HAL_Delay(100); // Debounce delay
 8000c50:	f001 face 	bl	80021f0 <HAL_Delay>
        while (HAL_GPIO_ReadPin(BUTTON_GPIO_PORT, BUTTON_LEFT_PIN) == GPIO_PIN_RESET) {
 8000c54:	f44f 4180 	mov.w	r1, #16384	; 0x4000
 8000c58:	4620      	mov	r0, r4
 8000c5a:	f001 fdcb 	bl	80027f4 <HAL_GPIO_ReadPin>
 8000c5e:	4603      	mov	r3, r0
            HAL_Delay(100); // Debounce delay
 8000c60:	2064      	movs	r0, #100	; 0x64
        while (HAL_GPIO_ReadPin(BUTTON_GPIO_PORT, BUTTON_LEFT_PIN) == GPIO_PIN_RESET) {
 8000c62:	2b00      	cmp	r3, #0
 8000c64:	d0f4      	beq.n	8000c50 <poll_buttons+0x44>
        }
        menu_update_display();
 8000c66:	f7ff ff65 	bl	8000b34 <menu_update_display>
    }
    if (HAL_GPIO_ReadPin(BUTTON_GPIO_PORT, BUTTON_RIGHT_PIN) == GPIO_PIN_RESET) {
 8000c6a:	4835      	ldr	r0, [pc, #212]	; (8000d40 <poll_buttons+0x134>)
 8000c6c:	f44f 4100 	mov.w	r1, #32768	; 0x8000
 8000c70:	f001 fdc0 	bl	80027f4 <HAL_GPIO_ReadPin>
 8000c74:	b9e0      	cbnz	r0, 8000cb0 <poll_buttons+0xa4>
    if (current_menu_item < MENU_ITEM_COUNT - 1) {
 8000c76:	4b33      	ldr	r3, [pc, #204]	; (8000d44 <poll_buttons+0x138>)
        menu_handle_button_right();
        HAL_Delay(100);
        while (HAL_GPIO_ReadPin(BUTTON_GPIO_PORT, BUTTON_RIGHT_PIN) == GPIO_PIN_RESET) {
 8000c78:	4c31      	ldr	r4, [pc, #196]	; (8000d40 <poll_buttons+0x134>)
    if (current_menu_item < MENU_ITEM_COUNT - 1) {
 8000c7a:	781a      	ldrb	r2, [r3, #0]
 8000c7c:	2a03      	cmp	r2, #3
        current_menu_item++;
 8000c7e:	bf9c      	itt	ls
 8000c80:	3201      	addls	r2, #1
 8000c82:	b2d0      	uxtbls	r0, r2
 8000c84:	7018      	strb	r0, [r3, #0]
    menu_update_display();
 8000c86:	f7ff ff55 	bl	8000b34 <menu_update_display>
        HAL_Delay(100);
 8000c8a:	2064      	movs	r0, #100	; 0x64
 8000c8c:	f001 fab0 	bl	80021f0 <HAL_Delay>
        while (HAL_GPIO_ReadPin(BUTTON_GPIO_PORT, BUTTON_RIGHT_PIN) == GPIO_PIN_RESET) {
 8000c90:	e001      	b.n	8000c96 <poll_buttons+0x8a>
            HAL_Delay(100); // Debounce delay
 8000c92:	f001 faad 	bl	80021f0 <HAL_Delay>
        while (HAL_GPIO_ReadPin(BUTTON_GPIO_PORT, BUTTON_RIGHT_PIN) == GPIO_PIN_RESET) {
 8000c96:	f44f 4100 	mov.w	r1, #32768	; 0x8000
 8000c9a:	4620      	mov	r0, r4
 8000c9c:	f001 fdaa 	bl	80027f4 <HAL_GPIO_ReadPin>
 8000ca0:	4603      	mov	r3, r0
            HAL_Delay(100); // Debounce delay
 8000ca2:	2064      	movs	r0, #100	; 0x64
        while (HAL_GPIO_ReadPin(BUTTON_GPIO_PORT, BUTTON_RIGHT_PIN) == GPIO_PIN_RESET) {
 8000ca4:	2b00      	cmp	r3, #0
 8000ca6:	d0f4      	beq.n	8000c92 <poll_buttons+0x86>
        }
        menu_update_display();
    }
}
 8000ca8:	e8bd 4010 	ldmia.w	sp!, {r4, lr}
        menu_update_display();
 8000cac:	f7ff bf42 	b.w	8000b34 <menu_update_display>
}
 8000cb0:	bd10      	pop	{r4, pc}
        current_menu_item--;
 8000cb2:	3a01      	subs	r2, #1
 8000cb4:	b2d2      	uxtb	r2, r2
 8000cb6:	e7c3      	b.n	8000c40 <poll_buttons+0x34>
    switch (current_menu_item) {
 8000cb8:	4b22      	ldr	r3, [pc, #136]	; (8000d44 <poll_buttons+0x138>)
 8000cba:	781b      	ldrb	r3, [r3, #0]
 8000cbc:	2b03      	cmp	r3, #3
 8000cbe:	d03b      	beq.n	8000d38 <poll_buttons+0x12c>
 8000cc0:	2b04      	cmp	r3, #4
 8000cc2:	d032      	beq.n	8000d2a <poll_buttons+0x11e>
    menu_update_display();
 8000cc4:	f7ff ff36 	bl	8000b34 <menu_update_display>
        HAL_Delay(100);
 8000cc8:	2064      	movs	r0, #100	; 0x64
 8000cca:	f001 fa91 	bl	80021f0 <HAL_Delay>
        while (HAL_GPIO_ReadPin(BUTTON_GPIO_PORT, BUTTON_DOWN_PIN) == GPIO_PIN_RESET) {
 8000cce:	4c1c      	ldr	r4, [pc, #112]	; (8000d40 <poll_buttons+0x134>)
 8000cd0:	e001      	b.n	8000cd6 <poll_buttons+0xca>
            HAL_Delay(100); // Debounce delay
 8000cd2:	f001 fa8d 	bl	80021f0 <HAL_Delay>
        while (HAL_GPIO_ReadPin(BUTTON_GPIO_PORT, BUTTON_DOWN_PIN) == GPIO_PIN_RESET) {
 8000cd6:	f44f 5100 	mov.w	r1, #8192	; 0x2000
 8000cda:	4620      	mov	r0, r4
 8000cdc:	f001 fd8a 	bl	80027f4 <HAL_GPIO_ReadPin>
 8000ce0:	4603      	mov	r3, r0
            HAL_Delay(100); // Debounce delay
 8000ce2:	2064      	movs	r0, #100	; 0x64
        while (HAL_GPIO_ReadPin(BUTTON_GPIO_PORT, BUTTON_DOWN_PIN) == GPIO_PIN_RESET) {
 8000ce4:	2b00      	cmp	r3, #0
 8000ce6:	d0f4      	beq.n	8000cd2 <poll_buttons+0xc6>
        menu_update_display();
 8000ce8:	f7ff ff24 	bl	8000b34 <menu_update_display>
 8000cec:	e79d      	b.n	8000c2a <poll_buttons+0x1e>
    switch (current_menu_item) {
 8000cee:	4b15      	ldr	r3, [pc, #84]	; (8000d44 <poll_buttons+0x138>)
 8000cf0:	781b      	ldrb	r3, [r3, #0]
 8000cf2:	2b03      	cmp	r3, #3
 8000cf4:	d01c      	beq.n	8000d30 <poll_buttons+0x124>
 8000cf6:	2b04      	cmp	r3, #4
 8000cf8:	d014      	beq.n	8000d24 <poll_buttons+0x118>
    menu_update_display();
 8000cfa:	f7ff ff1b 	bl	8000b34 <menu_update_display>
        HAL_Delay(100);
 8000cfe:	2064      	movs	r0, #100	; 0x64
 8000d00:	f001 fa76 	bl	80021f0 <HAL_Delay>
        while (HAL_GPIO_ReadPin(BUTTON_GPIO_PORT, BUTTON_UP_PIN) == GPIO_PIN_RESET) {
 8000d04:	4c0e      	ldr	r4, [pc, #56]	; (8000d40 <poll_buttons+0x134>)
 8000d06:	e001      	b.n	8000d0c <poll_buttons+0x100>
            HAL_Delay(100); // Debounce delay
 8000d08:	f001 fa72 	bl	80021f0 <HAL_Delay>
        while (HAL_GPIO_ReadPin(BUTTON_GPIO_PORT, BUTTON_UP_PIN) == GPIO_PIN_RESET) {
 8000d0c:	f44f 5180 	mov.w	r1, #4096	; 0x1000
 8000d10:	4620      	mov	r0, r4
 8000d12:	f001 fd6f 	bl	80027f4 <HAL_GPIO_ReadPin>
 8000d16:	4603      	mov	r3, r0
            HAL_Delay(100); // Debounce delay
 8000d18:	2064      	movs	r0, #100	; 0x64
        while (HAL_GPIO_ReadPin(BUTTON_GPIO_PORT, BUTTON_UP_PIN) == GPIO_PIN_RESET) {
 8000d1a:	2b00      	cmp	r3, #0
 8000d1c:	d0f4      	beq.n	8000d08 <poll_buttons+0xfc>
        menu_update_display();
 8000d1e:	f7ff ff09 	bl	8000b34 <menu_update_display>
 8000d22:	e77b      	b.n	8000c1c <poll_buttons+0x10>
            tranposition__increment_octave();
 8000d24:	f000 ffae 	bl	8001c84 <tranposition__increment_octave>
            break;
 8000d28:	e7e7      	b.n	8000cfa <poll_buttons+0xee>
            tranposition__decrement_octave();
 8000d2a:	f000 ffd1 	bl	8001cd0 <tranposition__decrement_octave>
            break;
 8000d2e:	e7c9      	b.n	8000cc4 <poll_buttons+0xb8>
            sustain_flag = 1;
 8000d30:	4b05      	ldr	r3, [pc, #20]	; (8000d48 <poll_buttons+0x13c>)
 8000d32:	2201      	movs	r2, #1
 8000d34:	601a      	str	r2, [r3, #0]
            break;
 8000d36:	e7e0      	b.n	8000cfa <poll_buttons+0xee>
            sustain_flag = 0;
 8000d38:	4b03      	ldr	r3, [pc, #12]	; (8000d48 <poll_buttons+0x13c>)
 8000d3a:	6018      	str	r0, [r3, #0]
            break;
 8000d3c:	e7c2      	b.n	8000cc4 <poll_buttons+0xb8>
 8000d3e:	bf00      	nop
 8000d40:	48000400 	.word	0x48000400
 8000d44:	200003e5 	.word	0x200003e5
 8000d48:	200003e8 	.word	0x200003e8

08000d4c <lcd_init>:
    lcd_write_nibble(upper_nibble, 1);
    lcd_write_nibble(lower_nibble, 1);
}

void lcd_init()
{
 8000d4c:	b570      	push	{r4, r5, r6, lr}
    data |= backlight_state << BL_BIT;
 8000d4e:	4ec6      	ldr	r6, [pc, #792]	; (8001068 <lcd_init+0x31c>)
    HAL_I2C_Master_Transmit(&hi2c1, I2C_ADDR << 1, &data, 1, 100);
 8000d50:	4cc6      	ldr	r4, [pc, #792]	; (800106c <lcd_init+0x320>)
{
 8000d52:	b084      	sub	sp, #16
    HAL_Delay(50);
 8000d54:	2032      	movs	r0, #50	; 0x32
 8000d56:	f001 fa4b 	bl	80021f0 <HAL_Delay>
    data |= backlight_state << BL_BIT;
 8000d5a:	7833      	ldrb	r3, [r6, #0]
 8000d5c:	00db      	lsls	r3, r3, #3
    HAL_I2C_Master_Transmit(&hi2c1, I2C_ADDR << 1, &data, 1, 100);
 8000d5e:	2564      	movs	r5, #100	; 0x64
    data |= 1 << EN_BIT;
 8000d60:	f043 0334 	orr.w	r3, r3, #52	; 0x34
    HAL_I2C_Master_Transmit(&hi2c1, I2C_ADDR << 1, &data, 1, 100);
 8000d64:	f10d 020f 	add.w	r2, sp, #15
    data |= 1 << EN_BIT;
 8000d68:	f88d 300f 	strb.w	r3, [sp, #15]
    HAL_I2C_Master_Transmit(&hi2c1, I2C_ADDR << 1, &data, 1, 100);
 8000d6c:	214e      	movs	r1, #78	; 0x4e
 8000d6e:	2301      	movs	r3, #1
 8000d70:	9500      	str	r5, [sp, #0]
 8000d72:	4620      	mov	r0, r4
 8000d74:	f001 fe66 	bl	8002a44 <HAL_I2C_Master_Transmit>
    HAL_Delay(1);
 8000d78:	2001      	movs	r0, #1
 8000d7a:	f001 fa39 	bl	80021f0 <HAL_Delay>
    data &= ~(1 << EN_BIT);
 8000d7e:	f89d 300f 	ldrb.w	r3, [sp, #15]
    HAL_I2C_Master_Transmit(&hi2c1, I2C_ADDR << 1, &data, 1, 100);
 8000d82:	9500      	str	r5, [sp, #0]
    data &= ~(1 << EN_BIT);
 8000d84:	f023 0304 	bic.w	r3, r3, #4
    HAL_I2C_Master_Transmit(&hi2c1, I2C_ADDR << 1, &data, 1, 100);
 8000d88:	f10d 020f 	add.w	r2, sp, #15
    data &= ~(1 << EN_BIT);
 8000d8c:	f88d 300f 	strb.w	r3, [sp, #15]
    HAL_I2C_Master_Transmit(&hi2c1, I2C_ADDR << 1, &data, 1, 100);
 8000d90:	214e      	movs	r1, #78	; 0x4e
 8000d92:	2301      	movs	r3, #1
 8000d94:	4620      	mov	r0, r4
 8000d96:	f001 fe55 	bl	8002a44 <HAL_I2C_Master_Transmit>
    lcd_write_nibble(0x03, 0);
    HAL_Delay(5);
 8000d9a:	2005      	movs	r0, #5
 8000d9c:	f001 fa28 	bl	80021f0 <HAL_Delay>
    data |= backlight_state << BL_BIT;
 8000da0:	7833      	ldrb	r3, [r6, #0]
    HAL_I2C_Master_Transmit(&hi2c1, I2C_ADDR << 1, &data, 1, 100);
 8000da2:	9500      	str	r5, [sp, #0]
    data |= backlight_state << BL_BIT;
 8000da4:	00db      	lsls	r3, r3, #3
    data |= 1 << EN_BIT;
 8000da6:	f043 0334 	orr.w	r3, r3, #52	; 0x34
    HAL_I2C_Master_Transmit(&hi2c1, I2C_ADDR << 1, &data, 1, 100);
 8000daa:	f10d 020f 	add.w	r2, sp, #15
    data |= 1 << EN_BIT;
 8000dae:	f88d 300f 	strb.w	r3, [sp, #15]
    HAL_I2C_Master_Transmit(&hi2c1, I2C_ADDR << 1, &data, 1, 100);
 8000db2:	214e      	movs	r1, #78	; 0x4e
 8000db4:	2301      	movs	r3, #1
 8000db6:	4620      	mov	r0, r4
 8000db8:	f001 fe44 	bl	8002a44 <HAL_I2C_Master_Transmit>
    HAL_Delay(1);
 8000dbc:	2001      	movs	r0, #1
 8000dbe:	f001 fa17 	bl	80021f0 <HAL_Delay>
    data &= ~(1 << EN_BIT);
 8000dc2:	f89d 300f 	ldrb.w	r3, [sp, #15]
    HAL_I2C_Master_Transmit(&hi2c1, I2C_ADDR << 1, &data, 1, 100);
 8000dc6:	9500      	str	r5, [sp, #0]
    data &= ~(1 << EN_BIT);
 8000dc8:	f023 0304 	bic.w	r3, r3, #4
    HAL_I2C_Master_Transmit(&hi2c1, I2C_ADDR << 1, &data, 1, 100);
 8000dcc:	f10d 020f 	add.w	r2, sp, #15
    data &= ~(1 << EN_BIT);
 8000dd0:	f88d 300f 	strb.w	r3, [sp, #15]
    HAL_I2C_Master_Transmit(&hi2c1, I2C_ADDR << 1, &data, 1, 100);
 8000dd4:	214e      	movs	r1, #78	; 0x4e
 8000dd6:	2301      	movs	r3, #1
 8000dd8:	4620      	mov	r0, r4
 8000dda:	f001 fe33 	bl	8002a44 <HAL_I2C_Master_Transmit>
    lcd_write_nibble(0x03, 0);
    HAL_Delay(1);
 8000dde:	2001      	movs	r0, #1
 8000de0:	f001 fa06 	bl	80021f0 <HAL_Delay>
    data |= backlight_state << BL_BIT;
 8000de4:	7833      	ldrb	r3, [r6, #0]
    HAL_I2C_Master_Transmit(&hi2c1, I2C_ADDR << 1, &data, 1, 100);
 8000de6:	9500      	str	r5, [sp, #0]
    data |= backlight_state << BL_BIT;
 8000de8:	00db      	lsls	r3, r3, #3
    data |= 1 << EN_BIT;
 8000dea:	f043 0334 	orr.w	r3, r3, #52	; 0x34
    HAL_I2C_Master_Transmit(&hi2c1, I2C_ADDR << 1, &data, 1, 100);
 8000dee:	f10d 020f 	add.w	r2, sp, #15
    data |= 1 << EN_BIT;
 8000df2:	f88d 300f 	strb.w	r3, [sp, #15]
    HAL_I2C_Master_Transmit(&hi2c1, I2C_ADDR << 1, &data, 1, 100);
 8000df6:	214e      	movs	r1, #78	; 0x4e
 8000df8:	2301      	movs	r3, #1
 8000dfa:	4620      	mov	r0, r4
 8000dfc:	f001 fe22 	bl	8002a44 <HAL_I2C_Master_Transmit>
    HAL_Delay(1);
 8000e00:	2001      	movs	r0, #1
 8000e02:	f001 f9f5 	bl	80021f0 <HAL_Delay>
    data &= ~(1 << EN_BIT);
 8000e06:	f89d 300f 	ldrb.w	r3, [sp, #15]
    HAL_I2C_Master_Transmit(&hi2c1, I2C_ADDR << 1, &data, 1, 100);
 8000e0a:	9500      	str	r5, [sp, #0]
    data &= ~(1 << EN_BIT);
 8000e0c:	f023 0304 	bic.w	r3, r3, #4
    HAL_I2C_Master_Transmit(&hi2c1, I2C_ADDR << 1, &data, 1, 100);
 8000e10:	f10d 020f 	add.w	r2, sp, #15
    data &= ~(1 << EN_BIT);
 8000e14:	f88d 300f 	strb.w	r3, [sp, #15]
    HAL_I2C_Master_Transmit(&hi2c1, I2C_ADDR << 1, &data, 1, 100);
 8000e18:	214e      	movs	r1, #78	; 0x4e
 8000e1a:	2301      	movs	r3, #1
 8000e1c:	4620      	mov	r0, r4
 8000e1e:	f001 fe11 	bl	8002a44 <HAL_I2C_Master_Transmit>
    lcd_write_nibble(0x03, 0);
    HAL_Delay(1);
 8000e22:	2001      	movs	r0, #1
 8000e24:	f001 f9e4 	bl	80021f0 <HAL_Delay>
    data |= backlight_state << BL_BIT;
 8000e28:	7833      	ldrb	r3, [r6, #0]
    HAL_I2C_Master_Transmit(&hi2c1, I2C_ADDR << 1, &data, 1, 100);
 8000e2a:	9500      	str	r5, [sp, #0]
    data |= backlight_state << BL_BIT;
 8000e2c:	00db      	lsls	r3, r3, #3
    data |= 1 << EN_BIT;
 8000e2e:	f043 0324 	orr.w	r3, r3, #36	; 0x24
    HAL_I2C_Master_Transmit(&hi2c1, I2C_ADDR << 1, &data, 1, 100);
 8000e32:	f10d 020f 	add.w	r2, sp, #15
    data |= 1 << EN_BIT;
 8000e36:	f88d 300f 	strb.w	r3, [sp, #15]
    HAL_I2C_Master_Transmit(&hi2c1, I2C_ADDR << 1, &data, 1, 100);
 8000e3a:	214e      	movs	r1, #78	; 0x4e
 8000e3c:	2301      	movs	r3, #1
 8000e3e:	4620      	mov	r0, r4
 8000e40:	f001 fe00 	bl	8002a44 <HAL_I2C_Master_Transmit>
    HAL_Delay(1);
 8000e44:	2001      	movs	r0, #1
 8000e46:	f001 f9d3 	bl	80021f0 <HAL_Delay>
    data &= ~(1 << EN_BIT);
 8000e4a:	f89d 300f 	ldrb.w	r3, [sp, #15]
    HAL_I2C_Master_Transmit(&hi2c1, I2C_ADDR << 1, &data, 1, 100);
 8000e4e:	9500      	str	r5, [sp, #0]
    data &= ~(1 << EN_BIT);
 8000e50:	f023 0304 	bic.w	r3, r3, #4
 8000e54:	f88d 300f 	strb.w	r3, [sp, #15]
    HAL_I2C_Master_Transmit(&hi2c1, I2C_ADDR << 1, &data, 1, 100);
 8000e58:	f10d 020f 	add.w	r2, sp, #15
 8000e5c:	2301      	movs	r3, #1
 8000e5e:	214e      	movs	r1, #78	; 0x4e
 8000e60:	4620      	mov	r0, r4
 8000e62:	f001 fdef 	bl	8002a44 <HAL_I2C_Master_Transmit>
    data |= backlight_state << BL_BIT;
 8000e66:	7833      	ldrb	r3, [r6, #0]
    HAL_I2C_Master_Transmit(&hi2c1, I2C_ADDR << 1, &data, 1, 100);
 8000e68:	9500      	str	r5, [sp, #0]
    data |= backlight_state << BL_BIT;
 8000e6a:	00db      	lsls	r3, r3, #3
    data |= 1 << EN_BIT;
 8000e6c:	f043 0324 	orr.w	r3, r3, #36	; 0x24
    HAL_I2C_Master_Transmit(&hi2c1, I2C_ADDR << 1, &data, 1, 100);
 8000e70:	f10d 020f 	add.w	r2, sp, #15
    data |= 1 << EN_BIT;
 8000e74:	f88d 300f 	strb.w	r3, [sp, #15]
    HAL_I2C_Master_Transmit(&hi2c1, I2C_ADDR << 1, &data, 1, 100);
 8000e78:	214e      	movs	r1, #78	; 0x4e
 8000e7a:	2301      	movs	r3, #1
 8000e7c:	4620      	mov	r0, r4
 8000e7e:	f001 fde1 	bl	8002a44 <HAL_I2C_Master_Transmit>
    HAL_Delay(1);
 8000e82:	2001      	movs	r0, #1
 8000e84:	f001 f9b4 	bl	80021f0 <HAL_Delay>
    data &= ~(1 << EN_BIT);
 8000e88:	f89d 300f 	ldrb.w	r3, [sp, #15]
    HAL_I2C_Master_Transmit(&hi2c1, I2C_ADDR << 1, &data, 1, 100);
 8000e8c:	9500      	str	r5, [sp, #0]
    data &= ~(1 << EN_BIT);
 8000e8e:	f023 0304 	bic.w	r3, r3, #4
 8000e92:	f88d 300f 	strb.w	r3, [sp, #15]
    HAL_I2C_Master_Transmit(&hi2c1, I2C_ADDR << 1, &data, 1, 100);
 8000e96:	f10d 020f 	add.w	r2, sp, #15
 8000e9a:	2301      	movs	r3, #1
 8000e9c:	214e      	movs	r1, #78	; 0x4e
 8000e9e:	4620      	mov	r0, r4
 8000ea0:	f001 fdd0 	bl	8002a44 <HAL_I2C_Master_Transmit>
    data |= backlight_state << BL_BIT;
 8000ea4:	7833      	ldrb	r3, [r6, #0]
    HAL_I2C_Master_Transmit(&hi2c1, I2C_ADDR << 1, &data, 1, 100);
 8000ea6:	9500      	str	r5, [sp, #0]
    data |= backlight_state << BL_BIT;
 8000ea8:	00db      	lsls	r3, r3, #3
    data |= 1 << EN_BIT;
 8000eaa:	f063 037b 	orn	r3, r3, #123	; 0x7b
    HAL_I2C_Master_Transmit(&hi2c1, I2C_ADDR << 1, &data, 1, 100);
 8000eae:	f10d 020f 	add.w	r2, sp, #15
    data |= 1 << EN_BIT;
 8000eb2:	f88d 300f 	strb.w	r3, [sp, #15]
    HAL_I2C_Master_Transmit(&hi2c1, I2C_ADDR << 1, &data, 1, 100);
 8000eb6:	214e      	movs	r1, #78	; 0x4e
 8000eb8:	2301      	movs	r3, #1
 8000eba:	4620      	mov	r0, r4
 8000ebc:	f001 fdc2 	bl	8002a44 <HAL_I2C_Master_Transmit>
    HAL_Delay(1);
 8000ec0:	2001      	movs	r0, #1
 8000ec2:	f001 f995 	bl	80021f0 <HAL_Delay>
    data &= ~(1 << EN_BIT);
 8000ec6:	f89d 300f 	ldrb.w	r3, [sp, #15]
    HAL_I2C_Master_Transmit(&hi2c1, I2C_ADDR << 1, &data, 1, 100);
 8000eca:	9500      	str	r5, [sp, #0]
    data &= ~(1 << EN_BIT);
 8000ecc:	f023 0304 	bic.w	r3, r3, #4
 8000ed0:	f88d 300f 	strb.w	r3, [sp, #15]
    HAL_I2C_Master_Transmit(&hi2c1, I2C_ADDR << 1, &data, 1, 100);
 8000ed4:	f10d 020f 	add.w	r2, sp, #15
 8000ed8:	2301      	movs	r3, #1
 8000eda:	214e      	movs	r1, #78	; 0x4e
 8000edc:	4620      	mov	r0, r4
 8000ede:	f001 fdb1 	bl	8002a44 <HAL_I2C_Master_Transmit>
    data |= backlight_state << BL_BIT;
 8000ee2:	7833      	ldrb	r3, [r6, #0]
    HAL_I2C_Master_Transmit(&hi2c1, I2C_ADDR << 1, &data, 1, 100);
 8000ee4:	9500      	str	r5, [sp, #0]
    data |= backlight_state << BL_BIT;
 8000ee6:	00db      	lsls	r3, r3, #3
    data |= 1 << EN_BIT;
 8000ee8:	f043 0304 	orr.w	r3, r3, #4
    HAL_I2C_Master_Transmit(&hi2c1, I2C_ADDR << 1, &data, 1, 100);
 8000eec:	f10d 020f 	add.w	r2, sp, #15
    data |= 1 << EN_BIT;
 8000ef0:	f88d 300f 	strb.w	r3, [sp, #15]
    HAL_I2C_Master_Transmit(&hi2c1, I2C_ADDR << 1, &data, 1, 100);
 8000ef4:	214e      	movs	r1, #78	; 0x4e
 8000ef6:	2301      	movs	r3, #1
 8000ef8:	4620      	mov	r0, r4
 8000efa:	f001 fda3 	bl	8002a44 <HAL_I2C_Master_Transmit>
    HAL_Delay(1);
 8000efe:	2001      	movs	r0, #1
 8000f00:	f001 f976 	bl	80021f0 <HAL_Delay>
    data &= ~(1 << EN_BIT);
 8000f04:	f89d 300f 	ldrb.w	r3, [sp, #15]
    HAL_I2C_Master_Transmit(&hi2c1, I2C_ADDR << 1, &data, 1, 100);
 8000f08:	9500      	str	r5, [sp, #0]
    data &= ~(1 << EN_BIT);
 8000f0a:	f023 0304 	bic.w	r3, r3, #4
 8000f0e:	f88d 300f 	strb.w	r3, [sp, #15]
    HAL_I2C_Master_Transmit(&hi2c1, I2C_ADDR << 1, &data, 1, 100);
 8000f12:	f10d 020f 	add.w	r2, sp, #15
 8000f16:	2301      	movs	r3, #1
 8000f18:	214e      	movs	r1, #78	; 0x4e
 8000f1a:	4620      	mov	r0, r4
 8000f1c:	f001 fd92 	bl	8002a44 <HAL_I2C_Master_Transmit>
    data |= backlight_state << BL_BIT;
 8000f20:	7833      	ldrb	r3, [r6, #0]
    HAL_I2C_Master_Transmit(&hi2c1, I2C_ADDR << 1, &data, 1, 100);
 8000f22:	9500      	str	r5, [sp, #0]
    data |= backlight_state << BL_BIT;
 8000f24:	00db      	lsls	r3, r3, #3
    data |= 1 << EN_BIT;
 8000f26:	f063 033b 	orn	r3, r3, #59	; 0x3b
    HAL_I2C_Master_Transmit(&hi2c1, I2C_ADDR << 1, &data, 1, 100);
 8000f2a:	f10d 020f 	add.w	r2, sp, #15
    data |= 1 << EN_BIT;
 8000f2e:	f88d 300f 	strb.w	r3, [sp, #15]
    HAL_I2C_Master_Transmit(&hi2c1, I2C_ADDR << 1, &data, 1, 100);
 8000f32:	214e      	movs	r1, #78	; 0x4e
 8000f34:	2301      	movs	r3, #1
 8000f36:	4620      	mov	r0, r4
 8000f38:	f001 fd84 	bl	8002a44 <HAL_I2C_Master_Transmit>
    HAL_Delay(1);
 8000f3c:	2001      	movs	r0, #1
 8000f3e:	f001 f957 	bl	80021f0 <HAL_Delay>
    data &= ~(1 << EN_BIT);
 8000f42:	f89d 300f 	ldrb.w	r3, [sp, #15]
    HAL_I2C_Master_Transmit(&hi2c1, I2C_ADDR << 1, &data, 1, 100);
 8000f46:	9500      	str	r5, [sp, #0]
    data &= ~(1 << EN_BIT);
 8000f48:	f023 0304 	bic.w	r3, r3, #4
 8000f4c:	f88d 300f 	strb.w	r3, [sp, #15]
    HAL_I2C_Master_Transmit(&hi2c1, I2C_ADDR << 1, &data, 1, 100);
 8000f50:	f10d 020f 	add.w	r2, sp, #15
 8000f54:	2301      	movs	r3, #1
 8000f56:	214e      	movs	r1, #78	; 0x4e
 8000f58:	4620      	mov	r0, r4
 8000f5a:	f001 fd73 	bl	8002a44 <HAL_I2C_Master_Transmit>
    data |= backlight_state << BL_BIT;
 8000f5e:	7833      	ldrb	r3, [r6, #0]
    HAL_I2C_Master_Transmit(&hi2c1, I2C_ADDR << 1, &data, 1, 100);
 8000f60:	9500      	str	r5, [sp, #0]
    data |= backlight_state << BL_BIT;
 8000f62:	00db      	lsls	r3, r3, #3
    data |= 1 << EN_BIT;
 8000f64:	f043 0304 	orr.w	r3, r3, #4
    HAL_I2C_Master_Transmit(&hi2c1, I2C_ADDR << 1, &data, 1, 100);
 8000f68:	f10d 020f 	add.w	r2, sp, #15
    data |= 1 << EN_BIT;
 8000f6c:	f88d 300f 	strb.w	r3, [sp, #15]
    HAL_I2C_Master_Transmit(&hi2c1, I2C_ADDR << 1, &data, 1, 100);
 8000f70:	214e      	movs	r1, #78	; 0x4e
 8000f72:	2301      	movs	r3, #1
 8000f74:	4620      	mov	r0, r4
 8000f76:	f001 fd65 	bl	8002a44 <HAL_I2C_Master_Transmit>
    HAL_Delay(1);
 8000f7a:	2001      	movs	r0, #1
 8000f7c:	f001 f938 	bl	80021f0 <HAL_Delay>
    data &= ~(1 << EN_BIT);
 8000f80:	f89d 300f 	ldrb.w	r3, [sp, #15]
    HAL_I2C_Master_Transmit(&hi2c1, I2C_ADDR << 1, &data, 1, 100);
 8000f84:	9500      	str	r5, [sp, #0]
    data &= ~(1 << EN_BIT);
 8000f86:	f023 0304 	bic.w	r3, r3, #4
 8000f8a:	f88d 300f 	strb.w	r3, [sp, #15]
    HAL_I2C_Master_Transmit(&hi2c1, I2C_ADDR << 1, &data, 1, 100);
 8000f8e:	f10d 020f 	add.w	r2, sp, #15
 8000f92:	2301      	movs	r3, #1
 8000f94:	214e      	movs	r1, #78	; 0x4e
 8000f96:	4620      	mov	r0, r4
 8000f98:	f001 fd54 	bl	8002a44 <HAL_I2C_Master_Transmit>
    data |= backlight_state << BL_BIT;
 8000f9c:	7833      	ldrb	r3, [r6, #0]
    HAL_I2C_Master_Transmit(&hi2c1, I2C_ADDR << 1, &data, 1, 100);
 8000f9e:	9500      	str	r5, [sp, #0]
    data |= backlight_state << BL_BIT;
 8000fa0:	00db      	lsls	r3, r3, #3
    data |= 1 << EN_BIT;
 8000fa2:	432b      	orrs	r3, r5
    HAL_I2C_Master_Transmit(&hi2c1, I2C_ADDR << 1, &data, 1, 100);
 8000fa4:	f10d 020f 	add.w	r2, sp, #15
    data |= 1 << EN_BIT;
 8000fa8:	f88d 300f 	strb.w	r3, [sp, #15]
    HAL_I2C_Master_Transmit(&hi2c1, I2C_ADDR << 1, &data, 1, 100);
 8000fac:	214e      	movs	r1, #78	; 0x4e
 8000fae:	2301      	movs	r3, #1
 8000fb0:	4620      	mov	r0, r4
 8000fb2:	f001 fd47 	bl	8002a44 <HAL_I2C_Master_Transmit>
    HAL_Delay(1);
 8000fb6:	2001      	movs	r0, #1
 8000fb8:	f001 f91a 	bl	80021f0 <HAL_Delay>
    data &= ~(1 << EN_BIT);
 8000fbc:	f89d 300f 	ldrb.w	r3, [sp, #15]
    HAL_I2C_Master_Transmit(&hi2c1, I2C_ADDR << 1, &data, 1, 100);
 8000fc0:	9500      	str	r5, [sp, #0]
    data &= ~(1 << EN_BIT);
 8000fc2:	f023 0304 	bic.w	r3, r3, #4
 8000fc6:	f88d 300f 	strb.w	r3, [sp, #15]
    HAL_I2C_Master_Transmit(&hi2c1, I2C_ADDR << 1, &data, 1, 100);
 8000fca:	f10d 020f 	add.w	r2, sp, #15
 8000fce:	2301      	movs	r3, #1
 8000fd0:	214e      	movs	r1, #78	; 0x4e
 8000fd2:	4620      	mov	r0, r4
 8000fd4:	f001 fd36 	bl	8002a44 <HAL_I2C_Master_Transmit>
    data |= backlight_state << BL_BIT;
 8000fd8:	7833      	ldrb	r3, [r6, #0]
    HAL_I2C_Master_Transmit(&hi2c1, I2C_ADDR << 1, &data, 1, 100);
 8000fda:	9500      	str	r5, [sp, #0]
    data |= backlight_state << BL_BIT;
 8000fdc:	00db      	lsls	r3, r3, #3
    data |= 1 << EN_BIT;
 8000fde:	f043 0304 	orr.w	r3, r3, #4
    HAL_I2C_Master_Transmit(&hi2c1, I2C_ADDR << 1, &data, 1, 100);
 8000fe2:	f10d 020f 	add.w	r2, sp, #15
    data |= 1 << EN_BIT;
 8000fe6:	f88d 300f 	strb.w	r3, [sp, #15]
    HAL_I2C_Master_Transmit(&hi2c1, I2C_ADDR << 1, &data, 1, 100);
 8000fea:	214e      	movs	r1, #78	; 0x4e
 8000fec:	2301      	movs	r3, #1
 8000fee:	4620      	mov	r0, r4
 8000ff0:	f001 fd28 	bl	8002a44 <HAL_I2C_Master_Transmit>
    HAL_Delay(1);
 8000ff4:	2001      	movs	r0, #1
 8000ff6:	f001 f8fb 	bl	80021f0 <HAL_Delay>
    data &= ~(1 << EN_BIT);
 8000ffa:	f89d 300f 	ldrb.w	r3, [sp, #15]
    HAL_I2C_Master_Transmit(&hi2c1, I2C_ADDR << 1, &data, 1, 100);
 8000ffe:	9500      	str	r5, [sp, #0]
    data &= ~(1 << EN_BIT);
 8001000:	f023 0304 	bic.w	r3, r3, #4
 8001004:	f88d 300f 	strb.w	r3, [sp, #15]
    HAL_I2C_Master_Transmit(&hi2c1, I2C_ADDR << 1, &data, 1, 100);
 8001008:	f10d 020f 	add.w	r2, sp, #15
 800100c:	2301      	movs	r3, #1
 800100e:	214e      	movs	r1, #78	; 0x4e
 8001010:	4620      	mov	r0, r4
 8001012:	f001 fd17 	bl	8002a44 <HAL_I2C_Master_Transmit>
    data |= backlight_state << BL_BIT;
 8001016:	7832      	ldrb	r2, [r6, #0]
    HAL_I2C_Master_Transmit(&hi2c1, I2C_ADDR << 1, &data, 1, 100);
 8001018:	9500      	str	r5, [sp, #0]
    data |= backlight_state << BL_BIT;
 800101a:	00d2      	lsls	r2, r2, #3
    data |= 1 << EN_BIT;
 800101c:	f042 0214 	orr.w	r2, r2, #20
    HAL_I2C_Master_Transmit(&hi2c1, I2C_ADDR << 1, &data, 1, 100);
 8001020:	2301      	movs	r3, #1
    data |= 1 << EN_BIT;
 8001022:	f88d 200f 	strb.w	r2, [sp, #15]
    HAL_I2C_Master_Transmit(&hi2c1, I2C_ADDR << 1, &data, 1, 100);
 8001026:	214e      	movs	r1, #78	; 0x4e
 8001028:	f10d 020f 	add.w	r2, sp, #15
 800102c:	4620      	mov	r0, r4
 800102e:	f001 fd09 	bl	8002a44 <HAL_I2C_Master_Transmit>
    HAL_Delay(1);
 8001032:	2001      	movs	r0, #1
 8001034:	f001 f8dc 	bl	80021f0 <HAL_Delay>
    data &= ~(1 << EN_BIT);
 8001038:	f89d 100f 	ldrb.w	r1, [sp, #15]
    HAL_I2C_Master_Transmit(&hi2c1, I2C_ADDR << 1, &data, 1, 100);
 800103c:	9500      	str	r5, [sp, #0]
    data &= ~(1 << EN_BIT);
 800103e:	f021 0104 	bic.w	r1, r1, #4
    HAL_I2C_Master_Transmit(&hi2c1, I2C_ADDR << 1, &data, 1, 100);
 8001042:	2301      	movs	r3, #1
 8001044:	f10d 020f 	add.w	r2, sp, #15
    data &= ~(1 << EN_BIT);
 8001048:	f88d 100f 	strb.w	r1, [sp, #15]
    HAL_I2C_Master_Transmit(&hi2c1, I2C_ADDR << 1, &data, 1, 100);
 800104c:	4620      	mov	r0, r4
 800104e:	214e      	movs	r1, #78	; 0x4e
 8001050:	f001 fcf8 	bl	8002a44 <HAL_I2C_Master_Transmit>
        HAL_Delay(2);
 8001054:	2002      	movs	r0, #2
 8001056:	f001 f8cb 	bl	80021f0 <HAL_Delay>
    lcd_write_nibble(0x02, 0);
    lcd_send_cmd(0x28);
    lcd_send_cmd(0x0C);
    lcd_send_cmd(0x06);
    lcd_send_cmd(0x01);
    HAL_Delay(2);
 800105a:	2002      	movs	r0, #2
}
 800105c:	b004      	add	sp, #16
 800105e:	e8bd 4070 	ldmia.w	sp!, {r4, r5, r6, lr}
    HAL_Delay(2);
 8001062:	f001 b8c5 	b.w	80021f0 <HAL_Delay>
 8001066:	bf00      	nop
 8001068:	20000000 	.word	0x20000000
 800106c:	200001f0 	.word	0x200001f0

08001070 <lcd_write_multiline_string>:
        lcd_send_data(*str++);
    }
}

void lcd_write_multiline_string(char *str)
{
 8001070:	e92d 4ff0 	stmdb	sp!, {r4, r5, r6, r7, r8, r9, sl, fp, lr}
 8001074:	b08b      	sub	sp, #44	; 0x2c
 8001076:	9003      	str	r0, [sp, #12]
    int line = 0;
    int len = strlen(str);
 8001078:	f7ff f8a6 	bl	80001c8 <strlen>
    int pos = 0;

    while (pos < len && line < 2) {
 800107c:	2800      	cmp	r0, #0
 800107e:	f000 80aa 	beq.w	80011d6 <lcd_write_multiline_string+0x166>
 8001082:	4f56      	ldr	r7, [pc, #344]	; (80011dc <lcd_write_multiline_string+0x16c>)
    HAL_I2C_Master_Transmit(&hi2c1, I2C_ADDR << 1, &data, 1, 100);
 8001084:	4e56      	ldr	r6, [pc, #344]	; (80011e0 <lcd_write_multiline_string+0x170>)
 8001086:	4683      	mov	fp, r0
    int line = 0;
 8001088:	f04f 0900 	mov.w	r9, #0
        char buffer[LCD_WIDTH + 1];
        strncpy(buffer, str + pos, LCD_WIDTH);
 800108c:	9b03      	ldr	r3, [sp, #12]
 800108e:	2210      	movs	r2, #16
 8001090:	eb03 1109 	add.w	r1, r3, r9, lsl #4
 8001094:	a805      	add	r0, sp, #20
 8001096:	f003 fddd 	bl	8004c54 <strncpy>
        buffer[LCD_WIDTH] = '\0';
 800109a:	2300      	movs	r3, #0
 800109c:	f88d 3024 	strb.w	r3, [sp, #36]	; 0x24
    data |= backlight_state << BL_BIT;
 80010a0:	783b      	ldrb	r3, [r7, #0]
 80010a2:	00db      	lsls	r3, r3, #3
    data |= 1 << EN_BIT;
 80010a4:	ea43 1389 	orr.w	r3, r3, r9, lsl #6
    HAL_I2C_Master_Transmit(&hi2c1, I2C_ADDR << 1, &data, 1, 100);
 80010a8:	2464      	movs	r4, #100	; 0x64
    data |= 1 << EN_BIT;
 80010aa:	f063 037b 	orn	r3, r3, #123	; 0x7b
    HAL_I2C_Master_Transmit(&hi2c1, I2C_ADDR << 1, &data, 1, 100);
 80010ae:	f10d 0213 	add.w	r2, sp, #19
 80010b2:	214e      	movs	r1, #78	; 0x4e
    data |= 1 << EN_BIT;
 80010b4:	f88d 3013 	strb.w	r3, [sp, #19]
    HAL_I2C_Master_Transmit(&hi2c1, I2C_ADDR << 1, &data, 1, 100);
 80010b8:	9400      	str	r4, [sp, #0]
 80010ba:	2301      	movs	r3, #1
 80010bc:	4630      	mov	r0, r6
 80010be:	f001 fcc1 	bl	8002a44 <HAL_I2C_Master_Transmit>
    HAL_Delay(1);
 80010c2:	2001      	movs	r0, #1
 80010c4:	f001 f894 	bl	80021f0 <HAL_Delay>
    data &= ~(1 << EN_BIT);
 80010c8:	f89d 3013 	ldrb.w	r3, [sp, #19]
    HAL_I2C_Master_Transmit(&hi2c1, I2C_ADDR << 1, &data, 1, 100);
 80010cc:	9400      	str	r4, [sp, #0]
    data &= ~(1 << EN_BIT);
 80010ce:	f023 0304 	bic.w	r3, r3, #4
 80010d2:	f88d 3013 	strb.w	r3, [sp, #19]
    HAL_I2C_Master_Transmit(&hi2c1, I2C_ADDR << 1, &data, 1, 100);
 80010d6:	f10d 0213 	add.w	r2, sp, #19
 80010da:	2301      	movs	r3, #1
 80010dc:	214e      	movs	r1, #78	; 0x4e
 80010de:	4630      	mov	r0, r6
 80010e0:	f001 fcb0 	bl	8002a44 <HAL_I2C_Master_Transmit>
    data |= backlight_state << BL_BIT;
 80010e4:	783b      	ldrb	r3, [r7, #0]
    HAL_I2C_Master_Transmit(&hi2c1, I2C_ADDR << 1, &data, 1, 100);
 80010e6:	9400      	str	r4, [sp, #0]
    data |= backlight_state << BL_BIT;
 80010e8:	00db      	lsls	r3, r3, #3
    data |= 1 << EN_BIT;
 80010ea:	f043 0304 	orr.w	r3, r3, #4
    HAL_I2C_Master_Transmit(&hi2c1, I2C_ADDR << 1, &data, 1, 100);
 80010ee:	f10d 0213 	add.w	r2, sp, #19
 80010f2:	214e      	movs	r1, #78	; 0x4e
    data |= 1 << EN_BIT;
 80010f4:	f88d 3013 	strb.w	r3, [sp, #19]
    HAL_I2C_Master_Transmit(&hi2c1, I2C_ADDR << 1, &data, 1, 100);
 80010f8:	4630      	mov	r0, r6
 80010fa:	2301      	movs	r3, #1
 80010fc:	f001 fca2 	bl	8002a44 <HAL_I2C_Master_Transmit>
    HAL_Delay(1);
 8001100:	2001      	movs	r0, #1
 8001102:	f001 f875 	bl	80021f0 <HAL_Delay>
    data &= ~(1 << EN_BIT);
 8001106:	f89d 2013 	ldrb.w	r2, [sp, #19]
    HAL_I2C_Master_Transmit(&hi2c1, I2C_ADDR << 1, &data, 1, 100);
 800110a:	9400      	str	r4, [sp, #0]
    data &= ~(1 << EN_BIT);
 800110c:	f022 0204 	bic.w	r2, r2, #4
 8001110:	f88d 2013 	strb.w	r2, [sp, #19]
    HAL_I2C_Master_Transmit(&hi2c1, I2C_ADDR << 1, &data, 1, 100);
 8001114:	2301      	movs	r3, #1
 8001116:	f10d 0213 	add.w	r2, sp, #19
 800111a:	214e      	movs	r1, #78	; 0x4e
 800111c:	4630      	mov	r0, r6
 800111e:	f001 fc91 	bl	8002a44 <HAL_I2C_Master_Transmit>
    while (*str)
 8001122:	f89d 4014 	ldrb.w	r4, [sp, #20]
 8001126:	ea4f 1a09 	mov.w	sl, r9, lsl #4
 800112a:	2c00      	cmp	r4, #0
 800112c:	d049      	beq.n	80011c2 <lcd_write_multiline_string+0x152>
 800112e:	f10d 0814 	add.w	r8, sp, #20
    data |= backlight_state << BL_BIT;
 8001132:	783a      	ldrb	r2, [r7, #0]
    uint8_t data = nibble << D4_BIT;
 8001134:	f004 03f0 	and.w	r3, r4, #240	; 0xf0
    data |= 1 << EN_BIT;
 8001138:	ea43 03c2 	orr.w	r3, r3, r2, lsl #3
    HAL_I2C_Master_Transmit(&hi2c1, I2C_ADDR << 1, &data, 1, 100);
 800113c:	2564      	movs	r5, #100	; 0x64
    data |= 1 << EN_BIT;
 800113e:	f043 0305 	orr.w	r3, r3, #5
    HAL_I2C_Master_Transmit(&hi2c1, I2C_ADDR << 1, &data, 1, 100);
 8001142:	f10d 0213 	add.w	r2, sp, #19
 8001146:	214e      	movs	r1, #78	; 0x4e
    data |= 1 << EN_BIT;
 8001148:	f88d 3013 	strb.w	r3, [sp, #19]
    HAL_I2C_Master_Transmit(&hi2c1, I2C_ADDR << 1, &data, 1, 100);
 800114c:	9500      	str	r5, [sp, #0]
 800114e:	2301      	movs	r3, #1
 8001150:	4630      	mov	r0, r6
 8001152:	f001 fc77 	bl	8002a44 <HAL_I2C_Master_Transmit>
    HAL_Delay(1);
 8001156:	2001      	movs	r0, #1
 8001158:	f001 f84a 	bl	80021f0 <HAL_Delay>
    data &= ~(1 << EN_BIT);
 800115c:	f89d 2013 	ldrb.w	r2, [sp, #19]
    HAL_I2C_Master_Transmit(&hi2c1, I2C_ADDR << 1, &data, 1, 100);
 8001160:	9500      	str	r5, [sp, #0]
    data &= ~(1 << EN_BIT);
 8001162:	f022 0204 	bic.w	r2, r2, #4
    HAL_I2C_Master_Transmit(&hi2c1, I2C_ADDR << 1, &data, 1, 100);
 8001166:	2301      	movs	r3, #1
    data &= ~(1 << EN_BIT);
 8001168:	f88d 2013 	strb.w	r2, [sp, #19]
    HAL_I2C_Master_Transmit(&hi2c1, I2C_ADDR << 1, &data, 1, 100);
 800116c:	214e      	movs	r1, #78	; 0x4e
 800116e:	f10d 0213 	add.w	r2, sp, #19
 8001172:	4630      	mov	r0, r6
 8001174:	f001 fc66 	bl	8002a44 <HAL_I2C_Master_Transmit>
    data |= backlight_state << BL_BIT;
 8001178:	783b      	ldrb	r3, [r7, #0]
    HAL_I2C_Master_Transmit(&hi2c1, I2C_ADDR << 1, &data, 1, 100);
 800117a:	9500      	str	r5, [sp, #0]
    data |= 1 << EN_BIT;
 800117c:	0124      	lsls	r4, r4, #4
 800117e:	ea44 04c3 	orr.w	r4, r4, r3, lsl #3
    HAL_I2C_Master_Transmit(&hi2c1, I2C_ADDR << 1, &data, 1, 100);
 8001182:	f10d 0213 	add.w	r2, sp, #19
 8001186:	2301      	movs	r3, #1
 8001188:	214e      	movs	r1, #78	; 0x4e
    data |= 1 << EN_BIT;
 800118a:	f044 0405 	orr.w	r4, r4, #5
    HAL_I2C_Master_Transmit(&hi2c1, I2C_ADDR << 1, &data, 1, 100);
 800118e:	4630      	mov	r0, r6
    data |= 1 << EN_BIT;
 8001190:	f88d 4013 	strb.w	r4, [sp, #19]
    HAL_I2C_Master_Transmit(&hi2c1, I2C_ADDR << 1, &data, 1, 100);
 8001194:	f001 fc56 	bl	8002a44 <HAL_I2C_Master_Transmit>
    HAL_Delay(1);
 8001198:	2001      	movs	r0, #1
 800119a:	f001 f829 	bl	80021f0 <HAL_Delay>
    data &= ~(1 << EN_BIT);
 800119e:	f89d 0013 	ldrb.w	r0, [sp, #19]
    HAL_I2C_Master_Transmit(&hi2c1, I2C_ADDR << 1, &data, 1, 100);
 80011a2:	9500      	str	r5, [sp, #0]
    data &= ~(1 << EN_BIT);
 80011a4:	f020 0004 	bic.w	r0, r0, #4
 80011a8:	f88d 0013 	strb.w	r0, [sp, #19]
    HAL_I2C_Master_Transmit(&hi2c1, I2C_ADDR << 1, &data, 1, 100);
 80011ac:	2301      	movs	r3, #1
 80011ae:	f10d 0213 	add.w	r2, sp, #19
 80011b2:	214e      	movs	r1, #78	; 0x4e
 80011b4:	4630      	mov	r0, r6
 80011b6:	f001 fc45 	bl	8002a44 <HAL_I2C_Master_Transmit>
    while (*str)
 80011ba:	f818 4f01 	ldrb.w	r4, [r8, #1]!
 80011be:	2c00      	cmp	r4, #0
 80011c0:	d1b7      	bne.n	8001132 <lcd_write_multiline_string+0xc2>
    while (pos < len && line < 2) {
 80011c2:	f10a 0a10 	add.w	sl, sl, #16
 80011c6:	45d3      	cmp	fp, sl
 80011c8:	dd05      	ble.n	80011d6 <lcd_write_multiline_string+0x166>
 80011ca:	f1b9 0f00 	cmp.w	r9, #0
 80011ce:	d102      	bne.n	80011d6 <lcd_write_multiline_string+0x166>
 80011d0:	f04f 0901 	mov.w	r9, #1
 80011d4:	e75a      	b.n	800108c <lcd_write_multiline_string+0x1c>
        lcd_set_cursor(line, 0);
        lcd_write_string(buffer);
        pos += LCD_WIDTH;
        line++;
    }
}
 80011d6:	b00b      	add	sp, #44	; 0x2c
 80011d8:	e8bd 8ff0 	ldmia.w	sp!, {r4, r5, r6, r7, r8, r9, sl, fp, pc}
 80011dc:	20000000 	.word	0x20000000
 80011e0:	200001f0 	.word	0x200001f0

080011e4 <lcd_set_cursor>:

void lcd_set_cursor(uint8_t row, uint8_t column)
{
 80011e4:	b5f0      	push	{r4, r5, r6, r7, lr}
    uint8_t address;
    switch (row)
 80011e6:	f1a0 0001 	sub.w	r0, r0, #1
    data |= backlight_state << BL_BIT;
 80011ea:	4e27      	ldr	r6, [pc, #156]	; (8001288 <lcd_set_cursor+0xa4>)
    HAL_I2C_Master_Transmit(&hi2c1, I2C_ADDR << 1, &data, 1, 100);
 80011ec:	4d27      	ldr	r5, [pc, #156]	; (800128c <lcd_set_cursor+0xa8>)
    data |= backlight_state << BL_BIT;
 80011ee:	7832      	ldrb	r2, [r6, #0]
    switch (row)
 80011f0:	fab0 f080 	clz	r0, r0
 80011f4:	0940      	lsrs	r0, r0, #5
            address = 0x40;
            break;
        default:
            address = 0x00;
    }
    address += column;
 80011f6:	eb01 1180 	add.w	r1, r1, r0, lsl #6
    data |= 1 << EN_BIT;
 80011fa:	f001 03f0 	and.w	r3, r1, #240	; 0xf0
{
 80011fe:	b085      	sub	sp, #20
    data |= 1 << EN_BIT;
 8001200:	ea43 03c2 	orr.w	r3, r3, r2, lsl #3
    HAL_I2C_Master_Transmit(&hi2c1, I2C_ADDR << 1, &data, 1, 100);
 8001204:	2764      	movs	r7, #100	; 0x64
    data |= 1 << EN_BIT;
 8001206:	f063 037b 	orn	r3, r3, #123	; 0x7b
    HAL_I2C_Master_Transmit(&hi2c1, I2C_ADDR << 1, &data, 1, 100);
 800120a:	f10d 020f 	add.w	r2, sp, #15
    address += column;
 800120e:	b2cc      	uxtb	r4, r1
    data |= 1 << EN_BIT;
 8001210:	f88d 300f 	strb.w	r3, [sp, #15]
    HAL_I2C_Master_Transmit(&hi2c1, I2C_ADDR << 1, &data, 1, 100);
 8001214:	214e      	movs	r1, #78	; 0x4e
 8001216:	2301      	movs	r3, #1
 8001218:	9700      	str	r7, [sp, #0]
 800121a:	4628      	mov	r0, r5
 800121c:	f001 fc12 	bl	8002a44 <HAL_I2C_Master_Transmit>
    HAL_Delay(1);
 8001220:	2001      	movs	r0, #1
 8001222:	f000 ffe5 	bl	80021f0 <HAL_Delay>
    data &= ~(1 << EN_BIT);
 8001226:	f89d 300f 	ldrb.w	r3, [sp, #15]
    HAL_I2C_Master_Transmit(&hi2c1, I2C_ADDR << 1, &data, 1, 100);
 800122a:	9700      	str	r7, [sp, #0]
    data &= ~(1 << EN_BIT);
 800122c:	f023 0304 	bic.w	r3, r3, #4
 8001230:	f88d 300f 	strb.w	r3, [sp, #15]
    HAL_I2C_Master_Transmit(&hi2c1, I2C_ADDR << 1, &data, 1, 100);
 8001234:	f10d 020f 	add.w	r2, sp, #15
 8001238:	2301      	movs	r3, #1
 800123a:	214e      	movs	r1, #78	; 0x4e
 800123c:	4628      	mov	r0, r5
 800123e:	f001 fc01 	bl	8002a44 <HAL_I2C_Master_Transmit>
    data |= backlight_state << BL_BIT;
 8001242:	7833      	ldrb	r3, [r6, #0]
    HAL_I2C_Master_Transmit(&hi2c1, I2C_ADDR << 1, &data, 1, 100);
 8001244:	9700      	str	r7, [sp, #0]
    data |= backlight_state << BL_BIT;
 8001246:	0121      	lsls	r1, r4, #4
 8001248:	ea41 01c3 	orr.w	r1, r1, r3, lsl #3
    data |= 1 << EN_BIT;
 800124c:	f041 0104 	orr.w	r1, r1, #4
    HAL_I2C_Master_Transmit(&hi2c1, I2C_ADDR << 1, &data, 1, 100);
 8001250:	f10d 020f 	add.w	r2, sp, #15
 8001254:	2301      	movs	r3, #1
    data |= 1 << EN_BIT;
 8001256:	f88d 100f 	strb.w	r1, [sp, #15]
    HAL_I2C_Master_Transmit(&hi2c1, I2C_ADDR << 1, &data, 1, 100);
 800125a:	4628      	mov	r0, r5
 800125c:	214e      	movs	r1, #78	; 0x4e
 800125e:	f001 fbf1 	bl	8002a44 <HAL_I2C_Master_Transmit>
    HAL_Delay(1);
 8001262:	2001      	movs	r0, #1
 8001264:	f000 ffc4 	bl	80021f0 <HAL_Delay>
    data &= ~(1 << EN_BIT);
 8001268:	f89d 400f 	ldrb.w	r4, [sp, #15]
    HAL_I2C_Master_Transmit(&hi2c1, I2C_ADDR << 1, &data, 1, 100);
 800126c:	9700      	str	r7, [sp, #0]
    data &= ~(1 << EN_BIT);
 800126e:	f024 0404 	bic.w	r4, r4, #4
    HAL_I2C_Master_Transmit(&hi2c1, I2C_ADDR << 1, &data, 1, 100);
 8001272:	2301      	movs	r3, #1
 8001274:	f10d 020f 	add.w	r2, sp, #15
 8001278:	214e      	movs	r1, #78	; 0x4e
 800127a:	4628      	mov	r0, r5
    data &= ~(1 << EN_BIT);
 800127c:	f88d 400f 	strb.w	r4, [sp, #15]
    HAL_I2C_Master_Transmit(&hi2c1, I2C_ADDR << 1, &data, 1, 100);
 8001280:	f001 fbe0 	bl	8002a44 <HAL_I2C_Master_Transmit>
    lcd_send_cmd(0x80 | address);
}
 8001284:	b005      	add	sp, #20
 8001286:	bdf0      	pop	{r4, r5, r6, r7, pc}
 8001288:	20000000 	.word	0x20000000
 800128c:	200001f0 	.word	0x200001f0

08001290 <lcd_clear>:

void lcd_clear(void)
{
 8001290:	b570      	push	{r4, r5, r6, lr}
    data |= backlight_state << BL_BIT;
 8001292:	4e24      	ldr	r6, [pc, #144]	; (8001324 <lcd_clear+0x94>)
    HAL_I2C_Master_Transmit(&hi2c1, I2C_ADDR << 1, &data, 1, 100);
 8001294:	4c24      	ldr	r4, [pc, #144]	; (8001328 <lcd_clear+0x98>)
    data |= backlight_state << BL_BIT;
 8001296:	7833      	ldrb	r3, [r6, #0]
{
 8001298:	b084      	sub	sp, #16
    data |= backlight_state << BL_BIT;
 800129a:	00db      	lsls	r3, r3, #3
    HAL_I2C_Master_Transmit(&hi2c1, I2C_ADDR << 1, &data, 1, 100);
 800129c:	2564      	movs	r5, #100	; 0x64
    data |= 1 << EN_BIT;
 800129e:	f043 0304 	orr.w	r3, r3, #4
    HAL_I2C_Master_Transmit(&hi2c1, I2C_ADDR << 1, &data, 1, 100);
 80012a2:	f10d 020f 	add.w	r2, sp, #15
 80012a6:	9500      	str	r5, [sp, #0]
    data |= 1 << EN_BIT;
 80012a8:	f88d 300f 	strb.w	r3, [sp, #15]
    HAL_I2C_Master_Transmit(&hi2c1, I2C_ADDR << 1, &data, 1, 100);
 80012ac:	214e      	movs	r1, #78	; 0x4e
 80012ae:	2301      	movs	r3, #1
 80012b0:	4620      	mov	r0, r4
 80012b2:	f001 fbc7 	bl	8002a44 <HAL_I2C_Master_Transmit>
    HAL_Delay(1);
 80012b6:	2001      	movs	r0, #1
 80012b8:	f000 ff9a 	bl	80021f0 <HAL_Delay>
    data &= ~(1 << EN_BIT);
 80012bc:	f89d 300f 	ldrb.w	r3, [sp, #15]
    HAL_I2C_Master_Transmit(&hi2c1, I2C_ADDR << 1, &data, 1, 100);
 80012c0:	9500      	str	r5, [sp, #0]
    data &= ~(1 << EN_BIT);
 80012c2:	f023 0304 	bic.w	r3, r3, #4
 80012c6:	f88d 300f 	strb.w	r3, [sp, #15]
    HAL_I2C_Master_Transmit(&hi2c1, I2C_ADDR << 1, &data, 1, 100);
 80012ca:	f10d 020f 	add.w	r2, sp, #15
 80012ce:	2301      	movs	r3, #1
 80012d0:	214e      	movs	r1, #78	; 0x4e
 80012d2:	4620      	mov	r0, r4
 80012d4:	f001 fbb6 	bl	8002a44 <HAL_I2C_Master_Transmit>
    data |= backlight_state << BL_BIT;
 80012d8:	7832      	ldrb	r2, [r6, #0]
    HAL_I2C_Master_Transmit(&hi2c1, I2C_ADDR << 1, &data, 1, 100);
 80012da:	9500      	str	r5, [sp, #0]
    data |= backlight_state << BL_BIT;
 80012dc:	00d2      	lsls	r2, r2, #3
    data |= 1 << EN_BIT;
 80012de:	f042 0214 	orr.w	r2, r2, #20
    HAL_I2C_Master_Transmit(&hi2c1, I2C_ADDR << 1, &data, 1, 100);
 80012e2:	2301      	movs	r3, #1
    data |= 1 << EN_BIT;
 80012e4:	f88d 200f 	strb.w	r2, [sp, #15]
    HAL_I2C_Master_Transmit(&hi2c1, I2C_ADDR << 1, &data, 1, 100);
 80012e8:	214e      	movs	r1, #78	; 0x4e
 80012ea:	f10d 020f 	add.w	r2, sp, #15
 80012ee:	4620      	mov	r0, r4
 80012f0:	f001 fba8 	bl	8002a44 <HAL_I2C_Master_Transmit>
    HAL_Delay(1);
 80012f4:	2001      	movs	r0, #1
 80012f6:	f000 ff7b 	bl	80021f0 <HAL_Delay>
    data &= ~(1 << EN_BIT);
 80012fa:	f89d 300f 	ldrb.w	r3, [sp, #15]
    HAL_I2C_Master_Transmit(&hi2c1, I2C_ADDR << 1, &data, 1, 100);
 80012fe:	9500      	str	r5, [sp, #0]
 8001300:	f10d 020f 	add.w	r2, sp, #15
    data &= ~(1 << EN_BIT);
 8001304:	f023 0504 	bic.w	r5, r3, #4
    HAL_I2C_Master_Transmit(&hi2c1, I2C_ADDR << 1, &data, 1, 100);
 8001308:	214e      	movs	r1, #78	; 0x4e
 800130a:	2301      	movs	r3, #1
 800130c:	4620      	mov	r0, r4
    data &= ~(1 << EN_BIT);
 800130e:	f88d 500f 	strb.w	r5, [sp, #15]
    HAL_I2C_Master_Transmit(&hi2c1, I2C_ADDR << 1, &data, 1, 100);
 8001312:	f001 fb97 	bl	8002a44 <HAL_I2C_Master_Transmit>
        HAL_Delay(2);
 8001316:	2002      	movs	r0, #2
    lcd_send_cmd(0x01);
}
 8001318:	b004      	add	sp, #16
 800131a:	e8bd 4070 	ldmia.w	sp!, {r4, r5, r6, lr}
        HAL_Delay(2);
 800131e:	f000 bf67 	b.w	80021f0 <HAL_Delay>
 8001322:	bf00      	nop
 8001324:	20000000 	.word	0x20000000
 8001328:	200001f0 	.word	0x200001f0

0800132c <HAL_MspInit>:
{
  /* USER CODE BEGIN MspInit 0 */

  /* USER CODE END MspInit 0 */

  __HAL_RCC_SYSCFG_CLK_ENABLE();
 800132c:	4b0a      	ldr	r3, [pc, #40]	; (8001358 <HAL_MspInit+0x2c>)
 800132e:	6e1a      	ldr	r2, [r3, #96]	; 0x60
 8001330:	f042 0201 	orr.w	r2, r2, #1
 8001334:	661a      	str	r2, [r3, #96]	; 0x60
 8001336:	6e1a      	ldr	r2, [r3, #96]	; 0x60
{
 8001338:	b082      	sub	sp, #8
  __HAL_RCC_SYSCFG_CLK_ENABLE();
 800133a:	f002 0201 	and.w	r2, r2, #1
 800133e:	9200      	str	r2, [sp, #0]
 8001340:	9a00      	ldr	r2, [sp, #0]
  __HAL_RCC_PWR_CLK_ENABLE();
 8001342:	6d9a      	ldr	r2, [r3, #88]	; 0x58
 8001344:	f042 5280 	orr.w	r2, r2, #268435456	; 0x10000000
 8001348:	659a      	str	r2, [r3, #88]	; 0x58
 800134a:	6d9b      	ldr	r3, [r3, #88]	; 0x58
 800134c:	f003 5380 	and.w	r3, r3, #268435456	; 0x10000000
 8001350:	9301      	str	r3, [sp, #4]
 8001352:	9b01      	ldr	r3, [sp, #4]
  /* System interrupt init*/

  /* USER CODE BEGIN MspInit 1 */

  /* USER CODE END MspInit 1 */
}
 8001354:	b002      	add	sp, #8
 8001356:	4770      	bx	lr
 8001358:	40021000 	.word	0x40021000

0800135c <HAL_DAC_MspInit>:
* This function configures the hardware resources used in this example
* @param hdac: DAC handle pointer
* @retval None
*/
void HAL_DAC_MspInit(DAC_HandleTypeDef* hdac)
{
 800135c:	b510      	push	{r4, lr}
  GPIO_InitTypeDef GPIO_InitStruct = {0};
  if(hdac->Instance==DAC1)
 800135e:	4b1a      	ldr	r3, [pc, #104]	; (80013c8 <HAL_DAC_MspInit+0x6c>)
 8001360:	6802      	ldr	r2, [r0, #0]
{
 8001362:	b088      	sub	sp, #32
  GPIO_InitTypeDef GPIO_InitStruct = {0};
 8001364:	2400      	movs	r4, #0
  if(hdac->Instance==DAC1)
 8001366:	429a      	cmp	r2, r3
  GPIO_InitTypeDef GPIO_InitStruct = {0};
 8001368:	e9cd 4402 	strd	r4, r4, [sp, #8]
 800136c:	e9cd 4404 	strd	r4, r4, [sp, #16]
 8001370:	9406      	str	r4, [sp, #24]
  if(hdac->Instance==DAC1)
 8001372:	d001      	beq.n	8001378 <HAL_DAC_MspInit+0x1c>
  /* USER CODE BEGIN DAC1_MspInit 1 */

  /* USER CODE END DAC1_MspInit 1 */
  }

}
 8001374:	b008      	add	sp, #32
 8001376:	bd10      	pop	{r4, pc}
    __HAL_RCC_DAC1_CLK_ENABLE();
 8001378:	f503 33ce 	add.w	r3, r3, #105472	; 0x19c00
    HAL_GPIO_Init(GPIOA, &GPIO_InitStruct);
 800137c:	a902      	add	r1, sp, #8
    __HAL_RCC_DAC1_CLK_ENABLE();
 800137e:	6d9a      	ldr	r2, [r3, #88]	; 0x58
 8001380:	f042 5200 	orr.w	r2, r2, #536870912	; 0x20000000
 8001384:	659a      	str	r2, [r3, #88]	; 0x58
 8001386:	6d9a      	ldr	r2, [r3, #88]	; 0x58
 8001388:	f002 5200 	and.w	r2, r2, #536870912	; 0x20000000
 800138c:	9200      	str	r2, [sp, #0]
 800138e:	9a00      	ldr	r2, [sp, #0]
    __HAL_RCC_GPIOA_CLK_ENABLE();
 8001390:	6cda      	ldr	r2, [r3, #76]	; 0x4c
 8001392:	f042 0201 	orr.w	r2, r2, #1
 8001396:	64da      	str	r2, [r3, #76]	; 0x4c
 8001398:	6cdb      	ldr	r3, [r3, #76]	; 0x4c
 800139a:	f003 0301 	and.w	r3, r3, #1
 800139e:	9301      	str	r3, [sp, #4]
    GPIO_InitStruct.Pin = GPIO_PIN_4|GPIO_PIN_5;
 80013a0:	2230      	movs	r2, #48	; 0x30
    HAL_GPIO_Init(GPIOA, &GPIO_InitStruct);
 80013a2:	f04f 4090 	mov.w	r0, #1207959552	; 0x48000000
    GPIO_InitStruct.Pin = GPIO_PIN_4|GPIO_PIN_5;
 80013a6:	2303      	movs	r3, #3
 80013a8:	e9cd 2302 	strd	r2, r3, [sp, #8]
    __HAL_RCC_GPIOA_CLK_ENABLE();
 80013ac:	9b01      	ldr	r3, [sp, #4]
    HAL_GPIO_Init(GPIOA, &GPIO_InitStruct);
 80013ae:	f001 f91f 	bl	80025f0 <HAL_GPIO_Init>
    HAL_NVIC_SetPriority(TIM6_DAC_IRQn, 0, 0);
 80013b2:	4622      	mov	r2, r4
 80013b4:	4621      	mov	r1, r4
 80013b6:	2036      	movs	r0, #54	; 0x36
 80013b8:	f000 ff3e 	bl	8002238 <HAL_NVIC_SetPriority>
    HAL_NVIC_EnableIRQ(TIM6_DAC_IRQn);
 80013bc:	2036      	movs	r0, #54	; 0x36
 80013be:	f000 ff79 	bl	80022b4 <HAL_NVIC_EnableIRQ>
}
 80013c2:	b008      	add	sp, #32
 80013c4:	bd10      	pop	{r4, pc}
 80013c6:	bf00      	nop
 80013c8:	40007400 	.word	0x40007400

080013cc <HAL_I2C_MspInit>:
* This function configures the hardware resources used in this example
* @param hi2c: I2C handle pointer
* @retval None
*/
void HAL_I2C_MspInit(I2C_HandleTypeDef* hi2c)
{
 80013cc:	b510      	push	{r4, lr}
 80013ce:	4604      	mov	r4, r0
 80013d0:	b0aa      	sub	sp, #168	; 0xa8
  GPIO_InitTypeDef GPIO_InitStruct = {0};
 80013d2:	2100      	movs	r1, #0
  RCC_PeriphCLKInitTypeDef PeriphClkInit = {0};
 80013d4:	2288      	movs	r2, #136	; 0x88
 80013d6:	a808      	add	r0, sp, #32
  GPIO_InitTypeDef GPIO_InitStruct = {0};
 80013d8:	e9cd 1102 	strd	r1, r1, [sp, #8]
 80013dc:	e9cd 1104 	strd	r1, r1, [sp, #16]
 80013e0:	9106      	str	r1, [sp, #24]
  RCC_PeriphCLKInitTypeDef PeriphClkInit = {0};
 80013e2:	f003 fc2f 	bl	8004c44 <memset>
  if(hi2c->Instance==I2C1)
 80013e6:	4b19      	ldr	r3, [pc, #100]	; (800144c <HAL_I2C_MspInit+0x80>)
 80013e8:	6822      	ldr	r2, [r4, #0]
 80013ea:	429a      	cmp	r2, r3
 80013ec:	d001      	beq.n	80013f2 <HAL_I2C_MspInit+0x26>
  /* USER CODE BEGIN I2C1_MspInit 1 */

  /* USER CODE END I2C1_MspInit 1 */
  }

}
 80013ee:	b02a      	add	sp, #168	; 0xa8
 80013f0:	bd10      	pop	{r4, pc}
    PeriphClkInit.PeriphClockSelection = RCC_PERIPHCLK_I2C1;
 80013f2:	2340      	movs	r3, #64	; 0x40
    if (HAL_RCCEx_PeriphCLKConfig(&PeriphClkInit) != HAL_OK)
 80013f4:	a808      	add	r0, sp, #32
    PeriphClkInit.PeriphClockSelection = RCC_PERIPHCLK_I2C1;
 80013f6:	9308      	str	r3, [sp, #32]
    if (HAL_RCCEx_PeriphCLKConfig(&PeriphClkInit) != HAL_OK)
 80013f8:	f002 fad2 	bl	80039a0 <HAL_RCCEx_PeriphCLKConfig>
 80013fc:	bb18      	cbnz	r0, 8001446 <HAL_I2C_MspInit+0x7a>
    __HAL_RCC_GPIOB_CLK_ENABLE();
 80013fe:	4c14      	ldr	r4, [pc, #80]	; (8001450 <HAL_I2C_MspInit+0x84>)
    HAL_GPIO_Init(GPIOB, &GPIO_InitStruct);
 8001400:	4814      	ldr	r0, [pc, #80]	; (8001454 <HAL_I2C_MspInit+0x88>)
    __HAL_RCC_GPIOB_CLK_ENABLE();
 8001402:	6ce3      	ldr	r3, [r4, #76]	; 0x4c
 8001404:	f043 0302 	orr.w	r3, r3, #2
 8001408:	64e3      	str	r3, [r4, #76]	; 0x4c
 800140a:	6ce3      	ldr	r3, [r4, #76]	; 0x4c
 800140c:	f003 0302 	and.w	r3, r3, #2
 8001410:	9300      	str	r3, [sp, #0]
    GPIO_InitStruct.Pin = GPIO_PIN_8|GPIO_PIN_9;
 8001412:	f44f 7240 	mov.w	r2, #768	; 0x300
 8001416:	2312      	movs	r3, #18
 8001418:	e9cd 2302 	strd	r2, r3, [sp, #8]
 800141c:	2200      	movs	r2, #0
 800141e:	2303      	movs	r3, #3
 8001420:	e9cd 2304 	strd	r2, r3, [sp, #16]
    HAL_GPIO_Init(GPIOB, &GPIO_InitStruct);
 8001424:	a902      	add	r1, sp, #8
    GPIO_InitStruct.Alternate = GPIO_AF4_I2C1;
 8001426:	2304      	movs	r3, #4
 8001428:	9306      	str	r3, [sp, #24]
    __HAL_RCC_GPIOB_CLK_ENABLE();
 800142a:	9a00      	ldr	r2, [sp, #0]
    HAL_GPIO_Init(GPIOB, &GPIO_InitStruct);
 800142c:	f001 f8e0 	bl	80025f0 <HAL_GPIO_Init>
    __HAL_RCC_I2C1_CLK_ENABLE();
 8001430:	6da3      	ldr	r3, [r4, #88]	; 0x58
 8001432:	f443 1300 	orr.w	r3, r3, #2097152	; 0x200000
 8001436:	65a3      	str	r3, [r4, #88]	; 0x58
 8001438:	6da3      	ldr	r3, [r4, #88]	; 0x58
 800143a:	f403 1300 	and.w	r3, r3, #2097152	; 0x200000
 800143e:	9301      	str	r3, [sp, #4]
 8001440:	9b01      	ldr	r3, [sp, #4]
}
 8001442:	b02a      	add	sp, #168	; 0xa8
 8001444:	bd10      	pop	{r4, pc}
      Error_Handler();
 8001446:	f7ff fb03 	bl	8000a50 <Error_Handler>
 800144a:	e7d8      	b.n	80013fe <HAL_I2C_MspInit+0x32>
 800144c:	40005400 	.word	0x40005400
 8001450:	40021000 	.word	0x40021000
 8001454:	48000400 	.word	0x48000400

08001458 <HAL_TIM_Base_MspInit>:
* This function configures the hardware resources used in this example
* @param htim_base: TIM_Base handle pointer
* @retval None
*/
void HAL_TIM_Base_MspInit(TIM_HandleTypeDef* htim_base)
{
 8001458:	b500      	push	{lr}
  if(htim_base->Instance==TIM15)
 800145a:	4a1a      	ldr	r2, [pc, #104]	; (80014c4 <HAL_TIM_Base_MspInit+0x6c>)
 800145c:	6803      	ldr	r3, [r0, #0]
 800145e:	4293      	cmp	r3, r2
{
 8001460:	b083      	sub	sp, #12
  if(htim_base->Instance==TIM15)
 8001462:	d005      	beq.n	8001470 <HAL_TIM_Base_MspInit+0x18>
    HAL_NVIC_EnableIRQ(TIM1_BRK_TIM15_IRQn);
  /* USER CODE BEGIN TIM15_MspInit 1 */

  /* USER CODE END TIM15_MspInit 1 */
  }
  else if(htim_base->Instance==TIM16)
 8001464:	4a18      	ldr	r2, [pc, #96]	; (80014c8 <HAL_TIM_Base_MspInit+0x70>)
 8001466:	4293      	cmp	r3, r2
 8001468:	d017      	beq.n	800149a <HAL_TIM_Base_MspInit+0x42>
  /* USER CODE BEGIN TIM16_MspInit 1 */

  /* USER CODE END TIM16_MspInit 1 */
  }

}
 800146a:	b003      	add	sp, #12
 800146c:	f85d fb04 	ldr.w	pc, [sp], #4
    __HAL_RCC_TIM15_CLK_ENABLE();
 8001470:	4b16      	ldr	r3, [pc, #88]	; (80014cc <HAL_TIM_Base_MspInit+0x74>)
 8001472:	6e19      	ldr	r1, [r3, #96]	; 0x60
 8001474:	f441 3180 	orr.w	r1, r1, #65536	; 0x10000
 8001478:	6619      	str	r1, [r3, #96]	; 0x60
 800147a:	6e1b      	ldr	r3, [r3, #96]	; 0x60
    HAL_NVIC_SetPriority(TIM1_BRK_TIM15_IRQn, 0, 0);
 800147c:	2200      	movs	r2, #0
    __HAL_RCC_TIM15_CLK_ENABLE();
 800147e:	f403 3380 	and.w	r3, r3, #65536	; 0x10000
 8001482:	9300      	str	r3, [sp, #0]
    HAL_NVIC_SetPriority(TIM1_BRK_TIM15_IRQn, 0, 0);
 8001484:	2018      	movs	r0, #24
 8001486:	4611      	mov	r1, r2
    __HAL_RCC_TIM15_CLK_ENABLE();
 8001488:	9b00      	ldr	r3, [sp, #0]
    HAL_NVIC_SetPriority(TIM1_BRK_TIM15_IRQn, 0, 0);
 800148a:	f000 fed5 	bl	8002238 <HAL_NVIC_SetPriority>
    HAL_NVIC_EnableIRQ(TIM1_BRK_TIM15_IRQn);
 800148e:	2018      	movs	r0, #24
}
 8001490:	b003      	add	sp, #12
 8001492:	f85d eb04 	ldr.w	lr, [sp], #4
    HAL_NVIC_EnableIRQ(TIM1_UP_TIM16_IRQn);
 8001496:	f000 bf0d 	b.w	80022b4 <HAL_NVIC_EnableIRQ>
    __HAL_RCC_TIM16_CLK_ENABLE();
 800149a:	4b0c      	ldr	r3, [pc, #48]	; (80014cc <HAL_TIM_Base_MspInit+0x74>)
 800149c:	6e19      	ldr	r1, [r3, #96]	; 0x60
 800149e:	f441 3100 	orr.w	r1, r1, #131072	; 0x20000
 80014a2:	6619      	str	r1, [r3, #96]	; 0x60
 80014a4:	6e1b      	ldr	r3, [r3, #96]	; 0x60
    HAL_NVIC_SetPriority(TIM1_UP_TIM16_IRQn, 0, 0);
 80014a6:	2200      	movs	r2, #0
    __HAL_RCC_TIM16_CLK_ENABLE();
 80014a8:	f403 3300 	and.w	r3, r3, #131072	; 0x20000
 80014ac:	9301      	str	r3, [sp, #4]
    HAL_NVIC_SetPriority(TIM1_UP_TIM16_IRQn, 0, 0);
 80014ae:	2019      	movs	r0, #25
 80014b0:	4611      	mov	r1, r2
    __HAL_RCC_TIM16_CLK_ENABLE();
 80014b2:	9b01      	ldr	r3, [sp, #4]
    HAL_NVIC_SetPriority(TIM1_UP_TIM16_IRQn, 0, 0);
 80014b4:	f000 fec0 	bl	8002238 <HAL_NVIC_SetPriority>
    HAL_NVIC_EnableIRQ(TIM1_UP_TIM16_IRQn);
 80014b8:	2019      	movs	r0, #25
}
 80014ba:	b003      	add	sp, #12
 80014bc:	f85d eb04 	ldr.w	lr, [sp], #4
    HAL_NVIC_EnableIRQ(TIM1_UP_TIM16_IRQn);
 80014c0:	f000 bef8 	b.w	80022b4 <HAL_NVIC_EnableIRQ>
 80014c4:	40014000 	.word	0x40014000
 80014c8:	40014400 	.word	0x40014400
 80014cc:	40021000 	.word	0x40021000

080014d0 <HAL_UART_MspInit>:
* This function configures the hardware resources used in this example
* @param huart: UART handle pointer
* @retval None
*/
void HAL_UART_MspInit(UART_HandleTypeDef* huart)
{
 80014d0:	b510      	push	{r4, lr}
 80014d2:	4604      	mov	r4, r0
 80014d4:	b0aa      	sub	sp, #168	; 0xa8
  GPIO_InitTypeDef GPIO_InitStruct = {0};
 80014d6:	2100      	movs	r1, #0
  RCC_PeriphCLKInitTypeDef PeriphClkInit = {0};
 80014d8:	2288      	movs	r2, #136	; 0x88
 80014da:	a808      	add	r0, sp, #32
  GPIO_InitTypeDef GPIO_InitStruct = {0};
 80014dc:	e9cd 1102 	strd	r1, r1, [sp, #8]
 80014e0:	e9cd 1104 	strd	r1, r1, [sp, #16]
 80014e4:	9106      	str	r1, [sp, #24]
  RCC_PeriphCLKInitTypeDef PeriphClkInit = {0};
 80014e6:	f003 fbad 	bl	8004c44 <memset>
  if(huart->Instance==USART2)
 80014ea:	4b21      	ldr	r3, [pc, #132]	; (8001570 <HAL_UART_MspInit+0xa0>)
 80014ec:	6822      	ldr	r2, [r4, #0]
 80014ee:	429a      	cmp	r2, r3
 80014f0:	d001      	beq.n	80014f6 <HAL_UART_MspInit+0x26>
  /* USER CODE BEGIN USART2_MspInit 1 */

  /* USER CODE END USART2_MspInit 1 */
  }

}
 80014f2:	b02a      	add	sp, #168	; 0xa8
 80014f4:	bd10      	pop	{r4, pc}
    PeriphClkInit.PeriphClockSelection = RCC_PERIPHCLK_USART2;
 80014f6:	2302      	movs	r3, #2
    if (HAL_RCCEx_PeriphCLKConfig(&PeriphClkInit) != HAL_OK)
 80014f8:	a808      	add	r0, sp, #32
    PeriphClkInit.PeriphClockSelection = RCC_PERIPHCLK_USART2;
 80014fa:	9308      	str	r3, [sp, #32]
    if (HAL_RCCEx_PeriphCLKConfig(&PeriphClkInit) != HAL_OK)
 80014fc:	f002 fa50 	bl	80039a0 <HAL_RCCEx_PeriphCLKConfig>
 8001500:	bb58      	cbnz	r0, 800155a <HAL_UART_MspInit+0x8a>
    __HAL_RCC_USART2_CLK_ENABLE();
 8001502:	4b1c      	ldr	r3, [pc, #112]	; (8001574 <HAL_UART_MspInit+0xa4>)
 8001504:	6d9a      	ldr	r2, [r3, #88]	; 0x58
 8001506:	f442 3200 	orr.w	r2, r2, #131072	; 0x20000
 800150a:	659a      	str	r2, [r3, #88]	; 0x58
 800150c:	6d9a      	ldr	r2, [r3, #88]	; 0x58
 800150e:	f402 3200 	and.w	r2, r2, #131072	; 0x20000
 8001512:	9200      	str	r2, [sp, #0]
 8001514:	9a00      	ldr	r2, [sp, #0]
    __HAL_RCC_GPIOA_CLK_ENABLE();
 8001516:	6cda      	ldr	r2, [r3, #76]	; 0x4c
    GPIO_InitStruct.Pin = USART_TX_Pin|USART_RX_Pin;
 8001518:	ed9f 7b11 	vldr	d7, [pc, #68]	; 8001560 <HAL_UART_MspInit+0x90>
    __HAL_RCC_GPIOA_CLK_ENABLE();
 800151c:	f042 0201 	orr.w	r2, r2, #1
 8001520:	64da      	str	r2, [r3, #76]	; 0x4c
 8001522:	6cdb      	ldr	r3, [r3, #76]	; 0x4c
    GPIO_InitStruct.Pin = USART_TX_Pin|USART_RX_Pin;
 8001524:	ed8d 7b02 	vstr	d7, [sp, #8]
 8001528:	ed9f 7b0f 	vldr	d7, [pc, #60]	; 8001568 <HAL_UART_MspInit+0x98>
    __HAL_RCC_GPIOA_CLK_ENABLE();
 800152c:	f003 0301 	and.w	r3, r3, #1
 8001530:	9301      	str	r3, [sp, #4]
    HAL_GPIO_Init(GPIOA, &GPIO_InitStruct);
 8001532:	a902      	add	r1, sp, #8
    GPIO_InitStruct.Alternate = GPIO_AF7_USART2;
 8001534:	2307      	movs	r3, #7
    HAL_GPIO_Init(GPIOA, &GPIO_InitStruct);
 8001536:	f04f 4090 	mov.w	r0, #1207959552	; 0x48000000
    GPIO_InitStruct.Pin = USART_TX_Pin|USART_RX_Pin;
 800153a:	ed8d 7b04 	vstr	d7, [sp, #16]
    GPIO_InitStruct.Alternate = GPIO_AF7_USART2;
 800153e:	9306      	str	r3, [sp, #24]
    __HAL_RCC_GPIOA_CLK_ENABLE();
 8001540:	9a01      	ldr	r2, [sp, #4]
    HAL_GPIO_Init(GPIOA, &GPIO_InitStruct);
 8001542:	f001 f855 	bl	80025f0 <HAL_GPIO_Init>
    HAL_NVIC_SetPriority(USART2_IRQn, 0, 0);
 8001546:	2200      	movs	r2, #0
 8001548:	4611      	mov	r1, r2
 800154a:	2026      	movs	r0, #38	; 0x26
 800154c:	f000 fe74 	bl	8002238 <HAL_NVIC_SetPriority>
    HAL_NVIC_EnableIRQ(USART2_IRQn);
 8001550:	2026      	movs	r0, #38	; 0x26
 8001552:	f000 feaf 	bl	80022b4 <HAL_NVIC_EnableIRQ>
}
 8001556:	b02a      	add	sp, #168	; 0xa8
 8001558:	bd10      	pop	{r4, pc}
      Error_Handler();
 800155a:	f7ff fa79 	bl	8000a50 <Error_Handler>
 800155e:	e7d0      	b.n	8001502 <HAL_UART_MspInit+0x32>
 8001560:	0000000c 	.word	0x0000000c
 8001564:	00000002 	.word	0x00000002
 8001568:	00000000 	.word	0x00000000
 800156c:	00000003 	.word	0x00000003
 8001570:	40004400 	.word	0x40004400
 8001574:	40021000 	.word	0x40021000

08001578 <NMI_Handler>:
{
  /* USER CODE BEGIN NonMaskableInt_IRQn 0 */

  /* USER CODE END NonMaskableInt_IRQn 0 */
  /* USER CODE BEGIN NonMaskableInt_IRQn 1 */
   while (1)
 8001578:	e7fe      	b.n	8001578 <NMI_Handler>
 800157a:	bf00      	nop

0800157c <HardFault_Handler>:
void HardFault_Handler(void)
{
  /* USER CODE BEGIN HardFault_IRQn 0 */

  /* USER CODE END HardFault_IRQn 0 */
  while (1)
 800157c:	e7fe      	b.n	800157c <HardFault_Handler>
 800157e:	bf00      	nop

08001580 <MemManage_Handler>:
void MemManage_Handler(void)
{
  /* USER CODE BEGIN MemoryManagement_IRQn 0 */

  /* USER CODE END MemoryManagement_IRQn 0 */
  while (1)
 8001580:	e7fe      	b.n	8001580 <MemManage_Handler>
 8001582:	bf00      	nop

08001584 <BusFault_Handler>:
void BusFault_Handler(void)
{
  /* USER CODE BEGIN BusFault_IRQn 0 */

  /* USER CODE END BusFault_IRQn 0 */
  while (1)
 8001584:	e7fe      	b.n	8001584 <BusFault_Handler>
 8001586:	bf00      	nop

08001588 <UsageFault_Handler>:
void UsageFault_Handler(void)
{
  /* USER CODE BEGIN UsageFault_IRQn 0 */

  /* USER CODE END UsageFault_IRQn 0 */
  while (1)
 8001588:	e7fe      	b.n	8001588 <UsageFault_Handler>
 800158a:	bf00      	nop

0800158c <SVC_Handler>:

  /* USER CODE END SVCall_IRQn 0 */
  /* USER CODE BEGIN SVCall_IRQn 1 */

  /* USER CODE END SVCall_IRQn 1 */
}
 800158c:	4770      	bx	lr
 800158e:	bf00      	nop

08001590 <DebugMon_Handler>:
 8001590:	4770      	bx	lr
 8001592:	bf00      	nop

08001594 <PendSV_Handler>:
 8001594:	4770      	bx	lr
 8001596:	bf00      	nop

08001598 <SysTick_Handler>:
void SysTick_Handler(void)
{
  /* USER CODE BEGIN SysTick_IRQn 0 */

  /* USER CODE END SysTick_IRQn 0 */
  HAL_IncTick();
 8001598:	f000 be18 	b.w	80021cc <HAL_IncTick>

0800159c <EXTI0_IRQHandler>:
void EXTI0_IRQHandler(void)
{
  /* USER CODE BEGIN EXTI0_IRQn 0 */

  /* USER CODE END EXTI0_IRQn 0 */
  HAL_GPIO_EXTI_IRQHandler(NOTE_1_Pin);
 800159c:	2001      	movs	r0, #1
 800159e:	f001 b92f 	b.w	8002800 <HAL_GPIO_EXTI_IRQHandler>
 80015a2:	bf00      	nop

080015a4 <EXTI1_IRQHandler>:
void EXTI1_IRQHandler(void)
{
  /* USER CODE BEGIN EXTI1_IRQn 0 */

  /* USER CODE END EXTI1_IRQn 0 */
  HAL_GPIO_EXTI_IRQHandler(NOTE_2_Pin);
 80015a4:	2002      	movs	r0, #2
 80015a6:	f001 b92b 	b.w	8002800 <HAL_GPIO_EXTI_IRQHandler>
 80015aa:	bf00      	nop

080015ac <EXTI2_IRQHandler>:
void EXTI2_IRQHandler(void)
{
  /* USER CODE BEGIN EXTI2_IRQn 0 */

  /* USER CODE END EXTI2_IRQn 0 */
  HAL_GPIO_EXTI_IRQHandler(NOTE_3_Pin);
 80015ac:	2004      	movs	r0, #4
 80015ae:	f001 b927 	b.w	8002800 <HAL_GPIO_EXTI_IRQHandler>
 80015b2:	bf00      	nop

080015b4 <EXTI3_IRQHandler>:
void EXTI3_IRQHandler(void)
{
  /* USER CODE BEGIN EXTI3_IRQn 0 */

  /* USER CODE END EXTI3_IRQn 0 */
  HAL_GPIO_EXTI_IRQHandler(NOTE_4_Pin);
 80015b4:	2008      	movs	r0, #8
 80015b6:	f001 b923 	b.w	8002800 <HAL_GPIO_EXTI_IRQHandler>
 80015ba:	bf00      	nop

080015bc <EXTI4_IRQHandler>:
void EXTI4_IRQHandler(void)
{
  /* USER CODE BEGIN EXTI4_IRQn 0 */

  /* USER CODE END EXTI4_IRQn 0 */
  HAL_GPIO_EXTI_IRQHandler(NOTE_5_Pin);
 80015bc:	2010      	movs	r0, #16
 80015be:	f001 b91f 	b.w	8002800 <HAL_GPIO_EXTI_IRQHandler>
 80015c2:	bf00      	nop

080015c4 <EXTI9_5_IRQHandler>:

/**
  * @brief This function handles EXTI line[9:5] interrupts.
  */
void EXTI9_5_IRQHandler(void)
{
 80015c4:	b508      	push	{r3, lr}
  /* USER CODE BEGIN EXTI9_5_IRQn 0 */

  /* USER CODE END EXTI9_5_IRQn 0 */
  HAL_GPIO_EXTI_IRQHandler(NOTE_6_Pin);
 80015c6:	2020      	movs	r0, #32
 80015c8:	f001 f91a 	bl	8002800 <HAL_GPIO_EXTI_IRQHandler>
  HAL_GPIO_EXTI_IRQHandler(NOTE_7_Pin);
 80015cc:	2040      	movs	r0, #64	; 0x40
 80015ce:	f001 f917 	bl	8002800 <HAL_GPIO_EXTI_IRQHandler>
  HAL_GPIO_EXTI_IRQHandler(NOTE_8_Pin);
 80015d2:	2080      	movs	r0, #128	; 0x80
 80015d4:	f001 f914 	bl	8002800 <HAL_GPIO_EXTI_IRQHandler>
  HAL_GPIO_EXTI_IRQHandler(NOTE_9_Pin);
 80015d8:	f44f 7080 	mov.w	r0, #256	; 0x100
 80015dc:	f001 f910 	bl	8002800 <HAL_GPIO_EXTI_IRQHandler>
  HAL_GPIO_EXTI_IRQHandler(NOTE_10_Pin);
  /* USER CODE BEGIN EXTI9_5_IRQn 1 */

  /* USER CODE END EXTI9_5_IRQn 1 */
}
 80015e0:	e8bd 4008 	ldmia.w	sp!, {r3, lr}
  HAL_GPIO_EXTI_IRQHandler(NOTE_10_Pin);
 80015e4:	f44f 7000 	mov.w	r0, #512	; 0x200
 80015e8:	f001 b90a 	b.w	8002800 <HAL_GPIO_EXTI_IRQHandler>

080015ec <TIM1_BRK_TIM15_IRQHandler>:
void TIM1_BRK_TIM15_IRQHandler(void)
{
  /* USER CODE BEGIN TIM1_BRK_TIM15_IRQn 0 */

  /* USER CODE END TIM1_BRK_TIM15_IRQn 0 */
  HAL_TIM_IRQHandler(&htim15);
 80015ec:	4801      	ldr	r0, [pc, #4]	; (80015f4 <TIM1_BRK_TIM15_IRQHandler+0x8>)
 80015ee:	f002 bd79 	b.w	80040e4 <HAL_TIM_IRQHandler>
 80015f2:	bf00      	nop
 80015f4:	20000244 	.word	0x20000244

080015f8 <TIM1_UP_TIM16_IRQHandler>:
void TIM1_UP_TIM16_IRQHandler(void)
{
  /* USER CODE BEGIN TIM1_UP_TIM16_IRQn 0 */

  /* USER CODE END TIM1_UP_TIM16_IRQn 0 */
  HAL_TIM_IRQHandler(&htim16);
 80015f8:	4801      	ldr	r0, [pc, #4]	; (8001600 <TIM1_UP_TIM16_IRQHandler+0x8>)
 80015fa:	f002 bd73 	b.w	80040e4 <HAL_TIM_IRQHandler>
 80015fe:	bf00      	nop
 8001600:	20000290 	.word	0x20000290

08001604 <USART2_IRQHandler>:
void USART2_IRQHandler(void)
{
  /* USER CODE BEGIN USART2_IRQn 0 */

  /* USER CODE END USART2_IRQn 0 */
  HAL_UART_IRQHandler(&huart2);
 8001604:	4801      	ldr	r0, [pc, #4]	; (800160c <USART2_IRQHandler+0x8>)
 8001606:	f002 be77 	b.w	80042f8 <HAL_UART_IRQHandler>
 800160a:	bf00      	nop
 800160c:	200002dc 	.word	0x200002dc

08001610 <EXTI15_10_IRQHandler>:

/**
  * @brief This function handles EXTI line[15:10] interrupts.
  */
void EXTI15_10_IRQHandler(void)
{
 8001610:	b508      	push	{r3, lr}
  /* USER CODE BEGIN EXTI15_10_IRQn 0 */

  /* USER CODE END EXTI15_10_IRQn 0 */
  HAL_GPIO_EXTI_IRQHandler(NOTE_11_Pin);
 8001612:	f44f 6080 	mov.w	r0, #1024	; 0x400
 8001616:	f001 f8f3 	bl	8002800 <HAL_GPIO_EXTI_IRQHandler>
  HAL_GPIO_EXTI_IRQHandler(NOTE_12_Pin);
  /* USER CODE BEGIN EXTI15_10_IRQn 1 */

  /* USER CODE END EXTI15_10_IRQn 1 */
}
 800161a:	e8bd 4008 	ldmia.w	sp!, {r3, lr}
  HAL_GPIO_EXTI_IRQHandler(NOTE_12_Pin);
 800161e:	f44f 6000 	mov.w	r0, #2048	; 0x800
 8001622:	f001 b8ed 	b.w	8002800 <HAL_GPIO_EXTI_IRQHandler>
 8001626:	bf00      	nop

08001628 <TIM6_DAC_IRQHandler>:
void TIM6_DAC_IRQHandler(void)
{
  /* USER CODE BEGIN TIM6_DAC_IRQn 0 */

  /* USER CODE END TIM6_DAC_IRQn 0 */
  HAL_DAC_IRQHandler(&hdac1);
 8001628:	4801      	ldr	r0, [pc, #4]	; (8001630 <TIM6_DAC_IRQHandler+0x8>)
 800162a:	f000 bec9 	b.w	80023c0 <HAL_DAC_IRQHandler>
 800162e:	bf00      	nop
 8001630:	200001dc 	.word	0x200001dc

08001634 <update_decay_values>:
int decay_index_A = 0;
int decay_index_As = 0;
int decay_index_B = 0;

void update_decay_values()
{
 8001634:	e92d 4ff0 	stmdb	sp!, {r4, r5, r6, r7, r8, r9, sl, fp, lr}
	// sustain_flag is the on/off switch. up button sets it true(on) and down button sets it false(off)
	if(sustain_flag)
 8001638:	4b6b      	ldr	r3, [pc, #428]	; (80017e8 <update_decay_values+0x1b4>)
 800163a:	681b      	ldr	r3, [r3, #0]
{
 800163c:	b083      	sub	sp, #12
	if(sustain_flag)
 800163e:	2b00      	cmp	r3, #0
 8001640:	f040 811c 	bne.w	800187c <update_decay_values+0x248>
			decay_index_D++;
		}

		if(sustain_Ds)
		{
			decay_value_Ds = decay_table[decay_index_Ds];
 8001644:	f8df a21c 	ldr.w	sl, [pc, #540]	; 8001864 <update_decay_values+0x230>
			decay_index_As++;
		}

		if(sustain_B)
		{
			decay_value_B = decay_table[decay_index_B];
 8001648:	f8df e21c 	ldr.w	lr, [pc, #540]	; 8001868 <update_decay_values+0x234>
			decay_value_Ds = decay_table[decay_index_Ds];
 800164c:	f8da 3000 	ldr.w	r3, [sl]
 8001650:	4a66      	ldr	r2, [pc, #408]	; (80017ec <update_decay_values+0x1b8>)
 8001652:	9300      	str	r3, [sp, #0]
			decay_value_B = decay_table[decay_index_B];
 8001654:	f8de b000 	ldr.w	fp, [lr]
 8001658:	f8df 8210 	ldr.w	r8, [pc, #528]	; 800186c <update_decay_values+0x238>
 800165c:	4b64      	ldr	r3, [pc, #400]	; (80017f0 <update_decay_values+0x1bc>)
 800165e:	f8df c210 	ldr.w	ip, [pc, #528]	; 8001870 <update_decay_values+0x23c>
 8001662:	4f64      	ldr	r7, [pc, #400]	; (80017f4 <update_decay_values+0x1c0>)
 8001664:	4e64      	ldr	r6, [pc, #400]	; (80017f8 <update_decay_values+0x1c4>)
 8001666:	4d65      	ldr	r5, [pc, #404]	; (80017fc <update_decay_values+0x1c8>)
 8001668:	4c65      	ldr	r4, [pc, #404]	; (8001800 <update_decay_values+0x1cc>)
 800166a:	4866      	ldr	r0, [pc, #408]	; (8001804 <update_decay_values+0x1d0>)
 800166c:	4966      	ldr	r1, [pc, #408]	; (8001808 <update_decay_values+0x1d4>)
 800166e:	9201      	str	r2, [sp, #4]

	}


	// if the index has reached the end of the decay table then the note should not be sustained anymore
	if(decay_index_C > 2500-1)
 8001670:	f8d8 2000 	ldr.w	r2, [r8]
 8001674:	f640 19c3 	movw	r9, #2499	; 0x9c3
 8001678:	454a      	cmp	r2, r9
 800167a:	dd0b      	ble.n	8001694 <update_decay_values+0x60>
	{
		sustain_C = 0;
 800167c:	4a63      	ldr	r2, [pc, #396]	; (800180c <update_decay_values+0x1d8>)
 800167e:	f04f 0900 	mov.w	r9, #0
 8001682:	f8c2 9000 	str.w	r9, [r2]
		decay_index_C = 0; //  reset index for repeat of sustain when note is played.
		decay_value_C = 1; // reset decay value afterwards
 8001686:	4a62      	ldr	r2, [pc, #392]	; (8001810 <update_decay_values+0x1dc>)
		decay_index_C = 0; //  reset index for repeat of sustain when note is played.
 8001688:	f8c8 9000 	str.w	r9, [r8]
		decay_value_C = 1; // reset decay value afterwards
 800168c:	f04f 587e 	mov.w	r8, #1065353216	; 0x3f800000
 8001690:	f8c2 8000 	str.w	r8, [r2]
	}

	if(decay_index_Cs > 2500-1)
 8001694:	681a      	ldr	r2, [r3, #0]
 8001696:	f640 18c3 	movw	r8, #2499	; 0x9c3
 800169a:	4542      	cmp	r2, r8
 800169c:	dd0c      	ble.n	80016b8 <update_decay_values+0x84>
	{
		sustain_Cs = 0;
 800169e:	f04f 0800 	mov.w	r8, #0
		decay_index_Cs = 0;
		decay_value_Cs = 1;
 80016a2:	f8df 91d0 	ldr.w	r9, [pc, #464]	; 8001874 <update_decay_values+0x240>
		sustain_Cs = 0;
 80016a6:	4a5b      	ldr	r2, [pc, #364]	; (8001814 <update_decay_values+0x1e0>)
		decay_index_Cs = 0;
 80016a8:	f8c3 8000 	str.w	r8, [r3]
		decay_value_Cs = 1;
 80016ac:	f04f 537e 	mov.w	r3, #1065353216	; 0x3f800000
		sustain_Cs = 0;
 80016b0:	f8c2 8000 	str.w	r8, [r2]
		decay_value_Cs = 1;
 80016b4:	f8c9 3000 	str.w	r3, [r9]
	}

	if(decay_index_D > 2500-1)
 80016b8:	f8dc 3000 	ldr.w	r3, [ip]
 80016bc:	f640 18c3 	movw	r8, #2499	; 0x9c3
 80016c0:	4543      	cmp	r3, r8
 80016c2:	dd0c      	ble.n	80016de <update_decay_values+0xaa>
	{
		sustain_D = 0;
 80016c4:	f8df 9184 	ldr.w	r9, [pc, #388]	; 800184c <update_decay_values+0x218>
		decay_index_D = 0;
		decay_value_D = 1;
 80016c8:	f8df 8184 	ldr.w	r8, [pc, #388]	; 8001850 <update_decay_values+0x21c>
		sustain_D = 0;
 80016cc:	2300      	movs	r3, #0
 80016ce:	f8c9 3000 	str.w	r3, [r9]
		decay_index_D = 0;
 80016d2:	f8cc 3000 	str.w	r3, [ip]
		decay_value_D = 1;
 80016d6:	f04f 537e 	mov.w	r3, #1065353216	; 0x3f800000
 80016da:	f8c8 3000 	str.w	r3, [r8]
	}

	if(decay_index_Ds > 2500-1)
 80016de:	9a00      	ldr	r2, [sp, #0]
 80016e0:	f640 13c3 	movw	r3, #2499	; 0x9c3
 80016e4:	429a      	cmp	r2, r3
 80016e6:	dd0c      	ble.n	8001702 <update_decay_values+0xce>
	{
		sustain_Ds = 0;
 80016e8:	f8df 8168 	ldr.w	r8, [pc, #360]	; 8001854 <update_decay_values+0x220>
		decay_index_Ds = 0;
		decay_value_Ds = 1;
 80016ec:	f8df c188 	ldr.w	ip, [pc, #392]	; 8001878 <update_decay_values+0x244>
		sustain_Ds = 0;
 80016f0:	2300      	movs	r3, #0
 80016f2:	f8c8 3000 	str.w	r3, [r8]
		decay_index_Ds = 0;
 80016f6:	f8ca 3000 	str.w	r3, [sl]
		decay_value_Ds = 1;
 80016fa:	f04f 537e 	mov.w	r3, #1065353216	; 0x3f800000
 80016fe:	f8cc 3000 	str.w	r3, [ip]
	}

	if(decay_index_E > 2500-1)
 8001702:	683b      	ldr	r3, [r7, #0]
 8001704:	f640 1cc3 	movw	ip, #2499	; 0x9c3
 8001708:	4563      	cmp	r3, ip
 800170a:	dd0b      	ble.n	8001724 <update_decay_values+0xf0>
	{
		sustain_E = 0;
 800170c:	f8df 8148 	ldr.w	r8, [pc, #328]	; 8001858 <update_decay_values+0x224>
		decay_index_E = 0;
		decay_value_E = 1;
 8001710:	f8df c148 	ldr.w	ip, [pc, #328]	; 800185c <update_decay_values+0x228>
		sustain_E = 0;
 8001714:	2300      	movs	r3, #0
 8001716:	f8c8 3000 	str.w	r3, [r8]
		decay_index_E = 0;
 800171a:	603b      	str	r3, [r7, #0]
		decay_value_E = 1;
 800171c:	f04f 537e 	mov.w	r3, #1065353216	; 0x3f800000
 8001720:	f8cc 3000 	str.w	r3, [ip]
	}

	if(decay_index_F > 2500-1)
 8001724:	6833      	ldr	r3, [r6, #0]
 8001726:	f640 17c3 	movw	r7, #2499	; 0x9c3
 800172a:	42bb      	cmp	r3, r7
 800172c:	dd09      	ble.n	8001742 <update_decay_values+0x10e>
	{
		sustain_F = 0;
 800172e:	f8df c130 	ldr.w	ip, [pc, #304]	; 8001860 <update_decay_values+0x22c>
		decay_index_F = 0;
		decay_value_F = 1;
 8001732:	4f39      	ldr	r7, [pc, #228]	; (8001818 <update_decay_values+0x1e4>)
		sustain_F = 0;
 8001734:	2300      	movs	r3, #0
 8001736:	f8cc 3000 	str.w	r3, [ip]
		decay_index_F = 0;
 800173a:	6033      	str	r3, [r6, #0]
		decay_value_F = 1;
 800173c:	f04f 537e 	mov.w	r3, #1065353216	; 0x3f800000
 8001740:	603b      	str	r3, [r7, #0]
	}

	if(decay_index_Fs > 2500-1)
 8001742:	682b      	ldr	r3, [r5, #0]
 8001744:	f640 16c3 	movw	r6, #2499	; 0x9c3
 8001748:	42b3      	cmp	r3, r6
 800174a:	dd07      	ble.n	800175c <update_decay_values+0x128>
	{
		sustain_Fs = 0;
 800174c:	4f33      	ldr	r7, [pc, #204]	; (800181c <update_decay_values+0x1e8>)
		decay_index_Fs = 0;
		decay_value_Fs = 1;
 800174e:	4e34      	ldr	r6, [pc, #208]	; (8001820 <update_decay_values+0x1ec>)
		sustain_Fs = 0;
 8001750:	2300      	movs	r3, #0
 8001752:	603b      	str	r3, [r7, #0]
		decay_index_Fs = 0;
 8001754:	602b      	str	r3, [r5, #0]
		decay_value_Fs = 1;
 8001756:	f04f 537e 	mov.w	r3, #1065353216	; 0x3f800000
 800175a:	6033      	str	r3, [r6, #0]
	}

	if(decay_index_G > 2500-1)
 800175c:	6825      	ldr	r5, [r4, #0]
 800175e:	f640 13c3 	movw	r3, #2499	; 0x9c3
 8001762:	429d      	cmp	r5, r3
 8001764:	dd07      	ble.n	8001776 <update_decay_values+0x142>
	{
		sustain_G = 0;
 8001766:	4e2f      	ldr	r6, [pc, #188]	; (8001824 <update_decay_values+0x1f0>)
		decay_index_G = 0;
		decay_value_G = 1;
 8001768:	4d2f      	ldr	r5, [pc, #188]	; (8001828 <update_decay_values+0x1f4>)
		sustain_G = 0;
 800176a:	2300      	movs	r3, #0
 800176c:	6033      	str	r3, [r6, #0]
		decay_index_G = 0;
 800176e:	6023      	str	r3, [r4, #0]
		decay_value_G = 1;
 8001770:	f04f 537e 	mov.w	r3, #1065353216	; 0x3f800000
 8001774:	602b      	str	r3, [r5, #0]
	}

	if(decay_index_Gs > 2500-1)
 8001776:	6804      	ldr	r4, [r0, #0]
 8001778:	f640 13c3 	movw	r3, #2499	; 0x9c3
 800177c:	429c      	cmp	r4, r3
 800177e:	dd07      	ble.n	8001790 <update_decay_values+0x15c>
	{
		sustain_Gs = 0;
 8001780:	4d2a      	ldr	r5, [pc, #168]	; (800182c <update_decay_values+0x1f8>)
		decay_index_Gs = 0;
		decay_value_Gs = 1;
 8001782:	4c2b      	ldr	r4, [pc, #172]	; (8001830 <update_decay_values+0x1fc>)
		sustain_Gs = 0;
 8001784:	2300      	movs	r3, #0
 8001786:	602b      	str	r3, [r5, #0]
		decay_index_Gs = 0;
 8001788:	6003      	str	r3, [r0, #0]
		decay_value_Gs = 1;
 800178a:	f04f 537e 	mov.w	r3, #1065353216	; 0x3f800000
 800178e:	6023      	str	r3, [r4, #0]
	}

	if(decay_index_A > 2500-1)
 8001790:	6808      	ldr	r0, [r1, #0]
 8001792:	f640 13c3 	movw	r3, #2499	; 0x9c3
 8001796:	4298      	cmp	r0, r3
 8001798:	dd07      	ble.n	80017aa <update_decay_values+0x176>
	{
		sustain_A = 0;
 800179a:	4c26      	ldr	r4, [pc, #152]	; (8001834 <update_decay_values+0x200>)
		decay_index_A = 0;
		decay_value_A = 1;
 800179c:	4826      	ldr	r0, [pc, #152]	; (8001838 <update_decay_values+0x204>)
		sustain_A = 0;
 800179e:	2300      	movs	r3, #0
 80017a0:	6023      	str	r3, [r4, #0]
		decay_index_A = 0;
 80017a2:	600b      	str	r3, [r1, #0]
		decay_value_A = 1;
 80017a4:	f04f 537e 	mov.w	r3, #1065353216	; 0x3f800000
 80017a8:	6003      	str	r3, [r0, #0]
	}

	if(decay_index_As > 2500-1)
 80017aa:	9a01      	ldr	r2, [sp, #4]
 80017ac:	6811      	ldr	r1, [r2, #0]
 80017ae:	f640 13c3 	movw	r3, #2499	; 0x9c3
 80017b2:	4299      	cmp	r1, r3
 80017b4:	dd07      	ble.n	80017c6 <update_decay_values+0x192>
	{
		sustain_As = 0;
 80017b6:	4921      	ldr	r1, [pc, #132]	; (800183c <update_decay_values+0x208>)
 80017b8:	2300      	movs	r3, #0
 80017ba:	600b      	str	r3, [r1, #0]
		decay_index_As = 0;
		decay_value_As = 1;
 80017bc:	4920      	ldr	r1, [pc, #128]	; (8001840 <update_decay_values+0x20c>)
		decay_index_As = 0;
 80017be:	6013      	str	r3, [r2, #0]
		decay_value_As = 1;
 80017c0:	f04f 537e 	mov.w	r3, #1065353216	; 0x3f800000
 80017c4:	600b      	str	r3, [r1, #0]
	}

	if(decay_index_B > 2500-1)
 80017c6:	f640 13c3 	movw	r3, #2499	; 0x9c3
 80017ca:	459b      	cmp	fp, r3
 80017cc:	dd08      	ble.n	80017e0 <update_decay_values+0x1ac>
	{
		sustain_B = 0;
 80017ce:	481d      	ldr	r0, [pc, #116]	; (8001844 <update_decay_values+0x210>)
		decay_index_B = 0;
		decay_value_B = 1;
 80017d0:	4a1d      	ldr	r2, [pc, #116]	; (8001848 <update_decay_values+0x214>)
		sustain_B = 0;
 80017d2:	2300      	movs	r3, #0
		decay_value_B = 1;
 80017d4:	f04f 517e 	mov.w	r1, #1065353216	; 0x3f800000
		sustain_B = 0;
 80017d8:	6003      	str	r3, [r0, #0]
		decay_index_B = 0;
 80017da:	f8ce 3000 	str.w	r3, [lr]
		decay_value_B = 1;
 80017de:	6011      	str	r1, [r2, #0]
	}



}
 80017e0:	b003      	add	sp, #12
 80017e2:	e8bd 8ff0 	ldmia.w	sp!, {r4, r5, r6, r7, r8, r9, sl, fp, pc}
 80017e6:	bf00      	nop
 80017e8:	200003e8 	.word	0x200003e8
 80017ec:	200003f0 	.word	0x200003f0
 80017f0:	200003fc 	.word	0x200003fc
 80017f4:	20000408 	.word	0x20000408
 80017f8:	2000040c 	.word	0x2000040c
 80017fc:	20000410 	.word	0x20000410
 8001800:	20000414 	.word	0x20000414
 8001804:	20000418 	.word	0x20000418
 8001808:	200003ec 	.word	0x200003ec
 800180c:	200003a0 	.word	0x200003a0
 8001810:	20000010 	.word	0x20000010
 8001814:	200003a4 	.word	0x200003a4
 8001818:	20000024 	.word	0x20000024
 800181c:	200003b8 	.word	0x200003b8
 8001820:	20000028 	.word	0x20000028
 8001824:	200003bc 	.word	0x200003bc
 8001828:	2000002c 	.word	0x2000002c
 800182c:	200003c0 	.word	0x200003c0
 8001830:	20000030 	.word	0x20000030
 8001834:	20000394 	.word	0x20000394
 8001838:	20000004 	.word	0x20000004
 800183c:	20000398 	.word	0x20000398
 8001840:	20000008 	.word	0x20000008
 8001844:	2000039c 	.word	0x2000039c
 8001848:	2000000c 	.word	0x2000000c
 800184c:	200003a8 	.word	0x200003a8
 8001850:	20000018 	.word	0x20000018
 8001854:	200003ac 	.word	0x200003ac
 8001858:	200003b0 	.word	0x200003b0
 800185c:	20000020 	.word	0x20000020
 8001860:	200003b4 	.word	0x200003b4
 8001864:	20000404 	.word	0x20000404
 8001868:	200003f4 	.word	0x200003f4
 800186c:	200003f8 	.word	0x200003f8
 8001870:	20000400 	.word	0x20000400
 8001874:	20000014 	.word	0x20000014
 8001878:	2000001c 	.word	0x2000001c
		if(sustain_C)
 800187c:	4b67      	ldr	r3, [pc, #412]	; (8001a1c <update_decay_values+0x3e8>)
			decay_value_C = decay_table[decay_index_C];
 800187e:	f8df 8214 	ldr.w	r8, [pc, #532]	; 8001a94 <update_decay_values+0x460>
		if(sustain_C)
 8001882:	681b      	ldr	r3, [r3, #0]
 8001884:	b153      	cbz	r3, 800189c <update_decay_values+0x268>
			decay_value_C = decay_table[decay_index_C];
 8001886:	f8d8 3000 	ldr.w	r3, [r8]
 800188a:	4a65      	ldr	r2, [pc, #404]	; (8001a20 <update_decay_values+0x3ec>)
 800188c:	4965      	ldr	r1, [pc, #404]	; (8001a24 <update_decay_values+0x3f0>)
 800188e:	eb02 0283 	add.w	r2, r2, r3, lsl #2
			decay_index_C++;
 8001892:	3301      	adds	r3, #1
			decay_value_C = decay_table[decay_index_C];
 8001894:	6812      	ldr	r2, [r2, #0]
 8001896:	600a      	str	r2, [r1, #0]
			decay_index_C++;
 8001898:	f8c8 3000 	str.w	r3, [r8]
		if(sustain_Cs)
 800189c:	4b62      	ldr	r3, [pc, #392]	; (8001a28 <update_decay_values+0x3f4>)
 800189e:	681b      	ldr	r3, [r3, #0]
 80018a0:	2b00      	cmp	r3, #0
 80018a2:	d17c      	bne.n	800199e <update_decay_values+0x36a>
 80018a4:	4b61      	ldr	r3, [pc, #388]	; (8001a2c <update_decay_values+0x3f8>)
		if(sustain_D)
 80018a6:	4a62      	ldr	r2, [pc, #392]	; (8001a30 <update_decay_values+0x3fc>)
			decay_value_D = decay_table[decay_index_D];
 80018a8:	f8df c1ec 	ldr.w	ip, [pc, #492]	; 8001a98 <update_decay_values+0x464>
		if(sustain_D)
 80018ac:	6812      	ldr	r2, [r2, #0]
 80018ae:	b152      	cbz	r2, 80018c6 <update_decay_values+0x292>
			decay_value_D = decay_table[decay_index_D];
 80018b0:	f8dc 2000 	ldr.w	r2, [ip]
 80018b4:	495a      	ldr	r1, [pc, #360]	; (8001a20 <update_decay_values+0x3ec>)
 80018b6:	485f      	ldr	r0, [pc, #380]	; (8001a34 <update_decay_values+0x400>)
 80018b8:	eb01 0182 	add.w	r1, r1, r2, lsl #2
			decay_index_D++;
 80018bc:	3201      	adds	r2, #1
			decay_value_D = decay_table[decay_index_D];
 80018be:	6809      	ldr	r1, [r1, #0]
 80018c0:	6001      	str	r1, [r0, #0]
			decay_index_D++;
 80018c2:	f8cc 2000 	str.w	r2, [ip]
		if(sustain_Ds)
 80018c6:	4a5c      	ldr	r2, [pc, #368]	; (8001a38 <update_decay_values+0x404>)
			decay_value_Ds = decay_table[decay_index_Ds];
 80018c8:	f8df a1d0 	ldr.w	sl, [pc, #464]	; 8001a9c <update_decay_values+0x468>
		if(sustain_Ds)
 80018cc:	6812      	ldr	r2, [r2, #0]
 80018ce:	2a00      	cmp	r2, #0
 80018d0:	d170      	bne.n	80019b4 <update_decay_values+0x380>
			decay_value_Ds = decay_table[decay_index_Ds];
 80018d2:	f8da 2000 	ldr.w	r2, [sl]
 80018d6:	9200      	str	r2, [sp, #0]
		if(sustain_E)
 80018d8:	4a58      	ldr	r2, [pc, #352]	; (8001a3c <update_decay_values+0x408>)
			decay_value_E = decay_table[decay_index_E];
 80018da:	4f59      	ldr	r7, [pc, #356]	; (8001a40 <update_decay_values+0x40c>)
		if(sustain_E)
 80018dc:	6812      	ldr	r2, [r2, #0]
 80018de:	b142      	cbz	r2, 80018f2 <update_decay_values+0x2be>
			decay_value_E = decay_table[decay_index_E];
 80018e0:	683a      	ldr	r2, [r7, #0]
 80018e2:	494f      	ldr	r1, [pc, #316]	; (8001a20 <update_decay_values+0x3ec>)
 80018e4:	eb01 0182 	add.w	r1, r1, r2, lsl #2
			decay_index_E++;
 80018e8:	3201      	adds	r2, #1
 80018ea:	603a      	str	r2, [r7, #0]
			decay_value_E = decay_table[decay_index_E];
 80018ec:	4a55      	ldr	r2, [pc, #340]	; (8001a44 <update_decay_values+0x410>)
 80018ee:	6809      	ldr	r1, [r1, #0]
 80018f0:	6011      	str	r1, [r2, #0]
		if(sustain_F)
 80018f2:	4a55      	ldr	r2, [pc, #340]	; (8001a48 <update_decay_values+0x414>)
			decay_value_F = decay_table[decay_index_F];
 80018f4:	4e55      	ldr	r6, [pc, #340]	; (8001a4c <update_decay_values+0x418>)
		if(sustain_F)
 80018f6:	6812      	ldr	r2, [r2, #0]
 80018f8:	b142      	cbz	r2, 800190c <update_decay_values+0x2d8>
			decay_value_F = decay_table[decay_index_F];
 80018fa:	6832      	ldr	r2, [r6, #0]
 80018fc:	4948      	ldr	r1, [pc, #288]	; (8001a20 <update_decay_values+0x3ec>)
 80018fe:	eb01 0182 	add.w	r1, r1, r2, lsl #2
			decay_index_F++;
 8001902:	3201      	adds	r2, #1
 8001904:	6032      	str	r2, [r6, #0]
			decay_value_F = decay_table[decay_index_F];
 8001906:	4a52      	ldr	r2, [pc, #328]	; (8001a50 <update_decay_values+0x41c>)
 8001908:	6809      	ldr	r1, [r1, #0]
 800190a:	6011      	str	r1, [r2, #0]
		if(sustain_Fs)
 800190c:	4a51      	ldr	r2, [pc, #324]	; (8001a54 <update_decay_values+0x420>)
			decay_value_Fs = decay_table[decay_index_Fs];
 800190e:	4d52      	ldr	r5, [pc, #328]	; (8001a58 <update_decay_values+0x424>)
		if(sustain_Fs)
 8001910:	6812      	ldr	r2, [r2, #0]
 8001912:	b142      	cbz	r2, 8001926 <update_decay_values+0x2f2>
			decay_value_Fs = decay_table[decay_index_Fs];
 8001914:	682a      	ldr	r2, [r5, #0]
 8001916:	4942      	ldr	r1, [pc, #264]	; (8001a20 <update_decay_values+0x3ec>)
 8001918:	eb01 0182 	add.w	r1, r1, r2, lsl #2
			decay_index_Fs++;
 800191c:	3201      	adds	r2, #1
 800191e:	602a      	str	r2, [r5, #0]
			decay_value_Fs = decay_table[decay_index_Fs];
 8001920:	4a4e      	ldr	r2, [pc, #312]	; (8001a5c <update_decay_values+0x428>)
 8001922:	6809      	ldr	r1, [r1, #0]
 8001924:	6011      	str	r1, [r2, #0]
		if(sustain_G)
 8001926:	4a4e      	ldr	r2, [pc, #312]	; (8001a60 <update_decay_values+0x42c>)
			decay_value_G = decay_table[decay_index_G];
 8001928:	4c4e      	ldr	r4, [pc, #312]	; (8001a64 <update_decay_values+0x430>)
		if(sustain_G)
 800192a:	6812      	ldr	r2, [r2, #0]
 800192c:	b142      	cbz	r2, 8001940 <update_decay_values+0x30c>
			decay_value_G = decay_table[decay_index_G];
 800192e:	6822      	ldr	r2, [r4, #0]
 8001930:	493b      	ldr	r1, [pc, #236]	; (8001a20 <update_decay_values+0x3ec>)
 8001932:	eb01 0182 	add.w	r1, r1, r2, lsl #2
			decay_index_G++;
 8001936:	3201      	adds	r2, #1
 8001938:	6022      	str	r2, [r4, #0]
			decay_value_G = decay_table[decay_index_G];
 800193a:	4a4b      	ldr	r2, [pc, #300]	; (8001a68 <update_decay_values+0x434>)
 800193c:	6809      	ldr	r1, [r1, #0]
 800193e:	6011      	str	r1, [r2, #0]
		if(sustain_Gs)
 8001940:	4a4a      	ldr	r2, [pc, #296]	; (8001a6c <update_decay_values+0x438>)
			decay_value_Gs = decay_table[decay_index_Gs];
 8001942:	484b      	ldr	r0, [pc, #300]	; (8001a70 <update_decay_values+0x43c>)
		if(sustain_Gs)
 8001944:	6812      	ldr	r2, [r2, #0]
 8001946:	b142      	cbz	r2, 800195a <update_decay_values+0x326>
			decay_value_Gs = decay_table[decay_index_Gs];
 8001948:	6802      	ldr	r2, [r0, #0]
 800194a:	4935      	ldr	r1, [pc, #212]	; (8001a20 <update_decay_values+0x3ec>)
 800194c:	eb01 0182 	add.w	r1, r1, r2, lsl #2
			decay_index_Gs++;
 8001950:	3201      	adds	r2, #1
 8001952:	6002      	str	r2, [r0, #0]
			decay_value_Gs = decay_table[decay_index_Gs];
 8001954:	4a47      	ldr	r2, [pc, #284]	; (8001a74 <update_decay_values+0x440>)
 8001956:	6809      	ldr	r1, [r1, #0]
 8001958:	6011      	str	r1, [r2, #0]
		if(sustain_A)
 800195a:	4a47      	ldr	r2, [pc, #284]	; (8001a78 <update_decay_values+0x444>)
			decay_value_A = decay_table[decay_index_A];
 800195c:	4947      	ldr	r1, [pc, #284]	; (8001a7c <update_decay_values+0x448>)
		if(sustain_A)
 800195e:	6812      	ldr	r2, [r2, #0]
 8001960:	b15a      	cbz	r2, 800197a <update_decay_values+0x346>
			decay_value_A = decay_table[decay_index_A];
 8001962:	680a      	ldr	r2, [r1, #0]
 8001964:	f8df e0b8 	ldr.w	lr, [pc, #184]	; 8001a20 <update_decay_values+0x3ec>
 8001968:	eb0e 0e82 	add.w	lr, lr, r2, lsl #2
			decay_index_A++;
 800196c:	3201      	adds	r2, #1
 800196e:	600a      	str	r2, [r1, #0]
			decay_value_A = decay_table[decay_index_A];
 8001970:	4a43      	ldr	r2, [pc, #268]	; (8001a80 <update_decay_values+0x44c>)
 8001972:	f8de e000 	ldr.w	lr, [lr]
 8001976:	f8c2 e000 	str.w	lr, [r2]
		if(sustain_As)
 800197a:	4a42      	ldr	r2, [pc, #264]	; (8001a84 <update_decay_values+0x450>)
 800197c:	6812      	ldr	r2, [r2, #0]
 800197e:	2a00      	cmp	r2, #0
 8001980:	d139      	bne.n	80019f6 <update_decay_values+0x3c2>
 8001982:	4a41      	ldr	r2, [pc, #260]	; (8001a88 <update_decay_values+0x454>)
 8001984:	9201      	str	r2, [sp, #4]
		if(sustain_B)
 8001986:	f8df e118 	ldr.w	lr, [pc, #280]	; 8001aa0 <update_decay_values+0x46c>
 800198a:	f8de e000 	ldr.w	lr, [lr]
 800198e:	f1be 0f00 	cmp.w	lr, #0
 8001992:	d11d      	bne.n	80019d0 <update_decay_values+0x39c>
			decay_value_B = decay_table[decay_index_B];
 8001994:	f8df e10c 	ldr.w	lr, [pc, #268]	; 8001aa4 <update_decay_values+0x470>
 8001998:	f8de b000 	ldr.w	fp, [lr]
 800199c:	e668      	b.n	8001670 <update_decay_values+0x3c>
			decay_value_Cs = decay_table[decay_index_Cs];
 800199e:	4b23      	ldr	r3, [pc, #140]	; (8001a2c <update_decay_values+0x3f8>)
 80019a0:	491f      	ldr	r1, [pc, #124]	; (8001a20 <update_decay_values+0x3ec>)
 80019a2:	681a      	ldr	r2, [r3, #0]
 80019a4:	4839      	ldr	r0, [pc, #228]	; (8001a8c <update_decay_values+0x458>)
 80019a6:	eb01 0182 	add.w	r1, r1, r2, lsl #2
			decay_index_Cs++;
 80019aa:	3201      	adds	r2, #1
			decay_value_Cs = decay_table[decay_index_Cs];
 80019ac:	6809      	ldr	r1, [r1, #0]
 80019ae:	6001      	str	r1, [r0, #0]
			decay_index_Cs++;
 80019b0:	601a      	str	r2, [r3, #0]
 80019b2:	e778      	b.n	80018a6 <update_decay_values+0x272>
			decay_value_Ds = decay_table[decay_index_Ds];
 80019b4:	f8da 2000 	ldr.w	r2, [sl]
 80019b8:	9200      	str	r2, [sp, #0]
 80019ba:	4611      	mov	r1, r2
 80019bc:	4a18      	ldr	r2, [pc, #96]	; (8001a20 <update_decay_values+0x3ec>)
 80019be:	eb02 0281 	add.w	r2, r2, r1, lsl #2
 80019c2:	6811      	ldr	r1, [r2, #0]
			decay_index_Cs++;
 80019c4:	681a      	ldr	r2, [r3, #0]
 80019c6:	3201      	adds	r2, #1
 80019c8:	601a      	str	r2, [r3, #0]
			decay_value_Ds = decay_table[decay_index_Ds];
 80019ca:	4a31      	ldr	r2, [pc, #196]	; (8001a90 <update_decay_values+0x45c>)
 80019cc:	6011      	str	r1, [r2, #0]
			decay_index_Cs++;
 80019ce:	e783      	b.n	80018d8 <update_decay_values+0x2a4>
			decay_value_B = decay_table[decay_index_B];
 80019d0:	f8df e0d0 	ldr.w	lr, [pc, #208]	; 8001aa4 <update_decay_values+0x470>
 80019d4:	f8df 9048 	ldr.w	r9, [pc, #72]	; 8001a20 <update_decay_values+0x3ec>
 80019d8:	f8de b000 	ldr.w	fp, [lr]
 80019dc:	eb09 098b 	add.w	r9, r9, fp, lsl #2
 80019e0:	edd9 7a00 	vldr	s15, [r9]
 80019e4:	f8df 90c0 	ldr.w	r9, [pc, #192]	; 8001aa8 <update_decay_values+0x474>
			decay_index_B++;
 80019e8:	f10b 0b01 	add.w	fp, fp, #1
 80019ec:	f8ce b000 	str.w	fp, [lr]
			decay_value_B = decay_table[decay_index_B];
 80019f0:	edc9 7a00 	vstr	s15, [r9]
			decay_index_B++;
 80019f4:	e63c      	b.n	8001670 <update_decay_values+0x3c>
			decay_value_As = decay_table[decay_index_As];
 80019f6:	4a24      	ldr	r2, [pc, #144]	; (8001a88 <update_decay_values+0x454>)
 80019f8:	f8df 9024 	ldr.w	r9, [pc, #36]	; 8001a20 <update_decay_values+0x3ec>
 80019fc:	f8d2 e000 	ldr.w	lr, [r2]
 8001a00:	9201      	str	r2, [sp, #4]
 8001a02:	eb09 098e 	add.w	r9, r9, lr, lsl #2
			decay_index_As++;
 8001a06:	f10e 0e01 	add.w	lr, lr, #1
 8001a0a:	f8c2 e000 	str.w	lr, [r2]
			decay_value_As = decay_table[decay_index_As];
 8001a0e:	f8df e09c 	ldr.w	lr, [pc, #156]	; 8001aac <update_decay_values+0x478>
 8001a12:	f8d9 9000 	ldr.w	r9, [r9]
 8001a16:	f8ce 9000 	str.w	r9, [lr]
			decay_index_As++;
 8001a1a:	e7b4      	b.n	8001986 <update_decay_values+0x352>
 8001a1c:	200003a0 	.word	0x200003a0
 8001a20:	08004d58 	.word	0x08004d58
 8001a24:	20000010 	.word	0x20000010
 8001a28:	200003a4 	.word	0x200003a4
 8001a2c:	200003fc 	.word	0x200003fc
 8001a30:	200003a8 	.word	0x200003a8
 8001a34:	20000018 	.word	0x20000018
 8001a38:	200003ac 	.word	0x200003ac
 8001a3c:	200003b0 	.word	0x200003b0
 8001a40:	20000408 	.word	0x20000408
 8001a44:	20000020 	.word	0x20000020
 8001a48:	200003b4 	.word	0x200003b4
 8001a4c:	2000040c 	.word	0x2000040c
 8001a50:	20000024 	.word	0x20000024
 8001a54:	200003b8 	.word	0x200003b8
 8001a58:	20000410 	.word	0x20000410
 8001a5c:	20000028 	.word	0x20000028
 8001a60:	200003bc 	.word	0x200003bc
 8001a64:	20000414 	.word	0x20000414
 8001a68:	2000002c 	.word	0x2000002c
 8001a6c:	200003c0 	.word	0x200003c0
 8001a70:	20000418 	.word	0x20000418
 8001a74:	20000030 	.word	0x20000030
 8001a78:	20000394 	.word	0x20000394
 8001a7c:	200003ec 	.word	0x200003ec
 8001a80:	20000004 	.word	0x20000004
 8001a84:	20000398 	.word	0x20000398
 8001a88:	200003f0 	.word	0x200003f0
 8001a8c:	20000014 	.word	0x20000014
 8001a90:	2000001c 	.word	0x2000001c
 8001a94:	200003f8 	.word	0x200003f8
 8001a98:	20000400 	.word	0x20000400
 8001a9c:	20000404 	.word	0x20000404
 8001aa0:	2000039c 	.word	0x2000039c
 8001aa4:	200003f4 	.word	0x200003f4
 8001aa8:	2000000c 	.word	0x2000000c
 8001aac:	20000008 	.word	0x20000008

08001ab0 <SystemInit>:
 8001ab0:	4a03      	ldr	r2, [pc, #12]	; (8001ac0 <SystemInit+0x10>)
 8001ab2:	f8d2 3088 	ldr.w	r3, [r2, #136]	; 0x88
 8001ab6:	f443 0370 	orr.w	r3, r3, #15728640	; 0xf00000
 8001aba:	f8c2 3088 	str.w	r3, [r2, #136]	; 0x88
 8001abe:	4770      	bx	lr
 8001ac0:	e000ed00 	.word	0xe000ed00

08001ac4 <update_note_tables>:
	}

	update_note_tables();
}

void update_note_tables(){
 8001ac4:	b430      	push	{r4, r5}
	 * This function takes the current octave and uses it to update our current
	 * note and sample information.
	 * The NOTE_TABLES are found in sine_tables.h
	 *
	 */
	current_C_TABLE = C_TABLES[activeOctave];
 8001ac6:	4b3e      	ldr	r3, [pc, #248]	; (8001bc0 <update_note_tables+0xfc>)
 8001ac8:	4d3e      	ldr	r5, [pc, #248]	; (8001bc4 <update_note_tables+0x100>)
 8001aca:	781b      	ldrb	r3, [r3, #0]
 8001acc:	4a3e      	ldr	r2, [pc, #248]	; (8001bc8 <update_note_tables+0x104>)
 8001ace:	f855 5023 	ldr.w	r5, [r5, r3, lsl #2]
	current_Cs_TABLE = Cs_TABLES[activeOctave];
 8001ad2:	483e      	ldr	r0, [pc, #248]	; (8001bcc <update_note_tables+0x108>)
	current_C_TABLE = C_TABLES[activeOctave];
 8001ad4:	6015      	str	r5, [r2, #0]
	current_Cs_TABLE = Cs_TABLES[activeOctave];
 8001ad6:	4a3e      	ldr	r2, [pc, #248]	; (8001bd0 <update_note_tables+0x10c>)
 8001ad8:	f850 0023 	ldr.w	r0, [r0, r3, lsl #2]
	current_D_TABLE = D_TABLES[activeOctave];
 8001adc:	493d      	ldr	r1, [pc, #244]	; (8001bd4 <update_note_tables+0x110>)
	current_Cs_TABLE = Cs_TABLES[activeOctave];
 8001ade:	6010      	str	r0, [r2, #0]
	current_D_TABLE = D_TABLES[activeOctave];
 8001ae0:	4a3d      	ldr	r2, [pc, #244]	; (8001bd8 <update_note_tables+0x114>)
 8001ae2:	f851 1023 	ldr.w	r1, [r1, r3, lsl #2]
	current_Ds_TABLE = Ds_TABLES[activeOctave];
 8001ae6:	4c3d      	ldr	r4, [pc, #244]	; (8001bdc <update_note_tables+0x118>)
	current_D_TABLE = D_TABLES[activeOctave];
 8001ae8:	6011      	str	r1, [r2, #0]
	current_Ds_TABLE = Ds_TABLES[activeOctave];
 8001aea:	4a3d      	ldr	r2, [pc, #244]	; (8001be0 <update_note_tables+0x11c>)
 8001aec:	f854 5023 	ldr.w	r5, [r4, r3, lsl #2]
	current_E_TABLE = E_TABLES[activeOctave];
 8001af0:	483c      	ldr	r0, [pc, #240]	; (8001be4 <update_note_tables+0x120>)
	current_Ds_TABLE = Ds_TABLES[activeOctave];
 8001af2:	6015      	str	r5, [r2, #0]
	current_E_TABLE = E_TABLES[activeOctave];
 8001af4:	4a3c      	ldr	r2, [pc, #240]	; (8001be8 <update_note_tables+0x124>)
 8001af6:	f850 0023 	ldr.w	r0, [r0, r3, lsl #2]
	current_F_TABLE = F_TABLES[activeOctave];
 8001afa:	493c      	ldr	r1, [pc, #240]	; (8001bec <update_note_tables+0x128>)
	current_E_TABLE = E_TABLES[activeOctave];
 8001afc:	6010      	str	r0, [r2, #0]
	current_F_TABLE = F_TABLES[activeOctave];
 8001afe:	4a3c      	ldr	r2, [pc, #240]	; (8001bf0 <update_note_tables+0x12c>)
 8001b00:	f851 1023 	ldr.w	r1, [r1, r3, lsl #2]
	current_Fs_TABLE = Fs_TABLES[activeOctave];
 8001b04:	4c3b      	ldr	r4, [pc, #236]	; (8001bf4 <update_note_tables+0x130>)
	current_F_TABLE = F_TABLES[activeOctave];
 8001b06:	6011      	str	r1, [r2, #0]
	current_Fs_TABLE = Fs_TABLES[activeOctave];
 8001b08:	4a3b      	ldr	r2, [pc, #236]	; (8001bf8 <update_note_tables+0x134>)
 8001b0a:	f854 5023 	ldr.w	r5, [r4, r3, lsl #2]
	current_G_TABLE = G_TABLES[activeOctave];
 8001b0e:	483b      	ldr	r0, [pc, #236]	; (8001bfc <update_note_tables+0x138>)
	current_Fs_TABLE = Fs_TABLES[activeOctave];
 8001b10:	6015      	str	r5, [r2, #0]
	current_G_TABLE = G_TABLES[activeOctave];
 8001b12:	4a3b      	ldr	r2, [pc, #236]	; (8001c00 <update_note_tables+0x13c>)
 8001b14:	f850 0023 	ldr.w	r0, [r0, r3, lsl #2]
	current_Gs_TABLE = Gs_TABLES[activeOctave];
 8001b18:	493a      	ldr	r1, [pc, #232]	; (8001c04 <update_note_tables+0x140>)
	current_G_TABLE = G_TABLES[activeOctave];
 8001b1a:	6010      	str	r0, [r2, #0]
	current_Gs_TABLE = Gs_TABLES[activeOctave];
 8001b1c:	4a3a      	ldr	r2, [pc, #232]	; (8001c08 <update_note_tables+0x144>)
 8001b1e:	f851 1023 	ldr.w	r1, [r1, r3, lsl #2]
	current_A_TABLE = A_TABLES[activeOctave];
 8001b22:	4c3a      	ldr	r4, [pc, #232]	; (8001c0c <update_note_tables+0x148>)
	current_Gs_TABLE = Gs_TABLES[activeOctave];
 8001b24:	6011      	str	r1, [r2, #0]
	current_A_TABLE = A_TABLES[activeOctave];
 8001b26:	4a3a      	ldr	r2, [pc, #232]	; (8001c10 <update_note_tables+0x14c>)
 8001b28:	f854 5023 	ldr.w	r5, [r4, r3, lsl #2]
	current_As_TABLE = As_TABLES[activeOctave];
 8001b2c:	4839      	ldr	r0, [pc, #228]	; (8001c14 <update_note_tables+0x150>)
	current_A_TABLE = A_TABLES[activeOctave];
 8001b2e:	6015      	str	r5, [r2, #0]
	current_As_TABLE = As_TABLES[activeOctave];
 8001b30:	4a39      	ldr	r2, [pc, #228]	; (8001c18 <update_note_tables+0x154>)
 8001b32:	f850 0023 	ldr.w	r0, [r0, r3, lsl #2]
	current_B_TABLE = B_TABLES[activeOctave];
 8001b36:	4939      	ldr	r1, [pc, #228]	; (8001c1c <update_note_tables+0x158>)
	current_As_TABLE = As_TABLES[activeOctave];
 8001b38:	6010      	str	r0, [r2, #0]
	current_B_TABLE = B_TABLES[activeOctave];
 8001b3a:	4a39      	ldr	r2, [pc, #228]	; (8001c20 <update_note_tables+0x15c>)
 8001b3c:	f851 1023 	ldr.w	r1, [r1, r3, lsl #2]

	current_C_SAMPLES = C_SAMPLES[activeOctave];
 8001b40:	4c38      	ldr	r4, [pc, #224]	; (8001c24 <update_note_tables+0x160>)
	current_B_TABLE = B_TABLES[activeOctave];
 8001b42:	6011      	str	r1, [r2, #0]
	current_C_SAMPLES = C_SAMPLES[activeOctave];
 8001b44:	4a38      	ldr	r2, [pc, #224]	; (8001c28 <update_note_tables+0x164>)
 8001b46:	f854 5023 	ldr.w	r5, [r4, r3, lsl #2]
	current_Cs_SAMPLES = Cs_SAMPLES[activeOctave];
 8001b4a:	4838      	ldr	r0, [pc, #224]	; (8001c2c <update_note_tables+0x168>)
	current_C_SAMPLES = C_SAMPLES[activeOctave];
 8001b4c:	6015      	str	r5, [r2, #0]
	current_Cs_SAMPLES = Cs_SAMPLES[activeOctave];
 8001b4e:	4a38      	ldr	r2, [pc, #224]	; (8001c30 <update_note_tables+0x16c>)
 8001b50:	f850 0023 	ldr.w	r0, [r0, r3, lsl #2]
	current_D_SAMPLES = D_SAMPLES[activeOctave];
 8001b54:	4937      	ldr	r1, [pc, #220]	; (8001c34 <update_note_tables+0x170>)
	current_Cs_SAMPLES = Cs_SAMPLES[activeOctave];
 8001b56:	6010      	str	r0, [r2, #0]
	current_Ds_SAMPLES = Ds_SAMPLES[activeOctave];
 8001b58:	4c37      	ldr	r4, [pc, #220]	; (8001c38 <update_note_tables+0x174>)
	current_D_SAMPLES = D_SAMPLES[activeOctave];
 8001b5a:	4a38      	ldr	r2, [pc, #224]	; (8001c3c <update_note_tables+0x178>)
 8001b5c:	f851 1023 	ldr.w	r1, [r1, r3, lsl #2]
	current_Ds_SAMPLES = Ds_SAMPLES[activeOctave];
 8001b60:	f854 4023 	ldr.w	r4, [r4, r3, lsl #2]
	current_D_SAMPLES = D_SAMPLES[activeOctave];
 8001b64:	6011      	str	r1, [r2, #0]
	current_E_SAMPLES = E_SAMPLES[activeOctave];
 8001b66:	4936      	ldr	r1, [pc, #216]	; (8001c40 <update_note_tables+0x17c>)
 8001b68:	4a36      	ldr	r2, [pc, #216]	; (8001c44 <update_note_tables+0x180>)
 8001b6a:	f851 1023 	ldr.w	r1, [r1, r3, lsl #2]
	current_Ds_SAMPLES = Ds_SAMPLES[activeOctave];
 8001b6e:	4836      	ldr	r0, [pc, #216]	; (8001c48 <update_note_tables+0x184>)
	current_F_SAMPLES = F_SAMPLES[activeOctave];
 8001b70:	4d36      	ldr	r5, [pc, #216]	; (8001c4c <update_note_tables+0x188>)
	current_E_SAMPLES = E_SAMPLES[activeOctave];
 8001b72:	6011      	str	r1, [r2, #0]
	current_F_SAMPLES = F_SAMPLES[activeOctave];
 8001b74:	4a36      	ldr	r2, [pc, #216]	; (8001c50 <update_note_tables+0x18c>)
 8001b76:	f855 5023 	ldr.w	r5, [r5, r3, lsl #2]
	current_Ds_SAMPLES = Ds_SAMPLES[activeOctave];
 8001b7a:	6004      	str	r4, [r0, #0]
	current_Fs_SAMPLES = Fs_SAMPLES[activeOctave];
 8001b7c:	4835      	ldr	r0, [pc, #212]	; (8001c54 <update_note_tables+0x190>)
	current_F_SAMPLES = F_SAMPLES[activeOctave];
 8001b7e:	6015      	str	r5, [r2, #0]
	current_Fs_SAMPLES = Fs_SAMPLES[activeOctave];
 8001b80:	4a35      	ldr	r2, [pc, #212]	; (8001c58 <update_note_tables+0x194>)
 8001b82:	f850 0023 	ldr.w	r0, [r0, r3, lsl #2]
	current_G_SAMPLES = G_SAMPLES[activeOctave];
 8001b86:	4935      	ldr	r1, [pc, #212]	; (8001c5c <update_note_tables+0x198>)
	current_Fs_SAMPLES = Fs_SAMPLES[activeOctave];
 8001b88:	6010      	str	r0, [r2, #0]
	current_G_SAMPLES = G_SAMPLES[activeOctave];
 8001b8a:	4a35      	ldr	r2, [pc, #212]	; (8001c60 <update_note_tables+0x19c>)
 8001b8c:	f851 1023 	ldr.w	r1, [r1, r3, lsl #2]
	current_Gs_SAMPLES = Gs_SAMPLES[activeOctave];
 8001b90:	4c34      	ldr	r4, [pc, #208]	; (8001c64 <update_note_tables+0x1a0>)
	current_G_SAMPLES = G_SAMPLES[activeOctave];
 8001b92:	6011      	str	r1, [r2, #0]
	current_Gs_SAMPLES = Gs_SAMPLES[activeOctave];
 8001b94:	4934      	ldr	r1, [pc, #208]	; (8001c68 <update_note_tables+0x1a4>)
 8001b96:	f854 5023 	ldr.w	r5, [r4, r3, lsl #2]
	current_A_SAMPLES = A_SAMPLES[activeOctave];
 8001b9a:	4c34      	ldr	r4, [pc, #208]	; (8001c6c <update_note_tables+0x1a8>)
	current_Gs_SAMPLES = Gs_SAMPLES[activeOctave];
 8001b9c:	600d      	str	r5, [r1, #0]
	current_As_SAMPLES = As_SAMPLES[activeOctave];
 8001b9e:	4834      	ldr	r0, [pc, #208]	; (8001c70 <update_note_tables+0x1ac>)
	current_A_SAMPLES = A_SAMPLES[activeOctave];
 8001ba0:	4934      	ldr	r1, [pc, #208]	; (8001c74 <update_note_tables+0x1b0>)
	current_B_SAMPLES = B_SAMPLES[activeOctave];
 8001ba2:	4a35      	ldr	r2, [pc, #212]	; (8001c78 <update_note_tables+0x1b4>)
	current_A_SAMPLES = A_SAMPLES[activeOctave];
 8001ba4:	f854 4023 	ldr.w	r4, [r4, r3, lsl #2]
 8001ba8:	600c      	str	r4, [r1, #0]
	current_As_SAMPLES = As_SAMPLES[activeOctave];
 8001baa:	f850 0023 	ldr.w	r0, [r0, r3, lsl #2]
	current_B_SAMPLES = B_SAMPLES[activeOctave];
 8001bae:	f852 2023 	ldr.w	r2, [r2, r3, lsl #2]
	current_As_SAMPLES = As_SAMPLES[activeOctave];
 8001bb2:	4932      	ldr	r1, [pc, #200]	; (8001c7c <update_note_tables+0x1b8>)
	current_B_SAMPLES = B_SAMPLES[activeOctave];
 8001bb4:	4b32      	ldr	r3, [pc, #200]	; (8001c80 <update_note_tables+0x1bc>)
	current_As_SAMPLES = As_SAMPLES[activeOctave];
 8001bb6:	6008      	str	r0, [r1, #0]

}
 8001bb8:	bc30      	pop	{r4, r5}
	current_B_SAMPLES = B_SAMPLES[activeOctave];
 8001bba:	601a      	str	r2, [r3, #0]
}
 8001bbc:	4770      	bx	lr
 8001bbe:	bf00      	nop
 8001bc0:	20000188 	.word	0x20000188
 8001bc4:	2000008c 	.word	0x2000008c
 8001bc8:	20000438 	.word	0x20000438
 8001bcc:	200000a8 	.word	0x200000a8
 8001bd0:	20000440 	.word	0x20000440
 8001bd4:	200000c4 	.word	0x200000c4
 8001bd8:	20000448 	.word	0x20000448
 8001bdc:	200000e0 	.word	0x200000e0
 8001be0:	20000450 	.word	0x20000450
 8001be4:	200000fc 	.word	0x200000fc
 8001be8:	20000458 	.word	0x20000458
 8001bec:	20000118 	.word	0x20000118
 8001bf0:	20000460 	.word	0x20000460
 8001bf4:	20000134 	.word	0x20000134
 8001bf8:	20000468 	.word	0x20000468
 8001bfc:	20000150 	.word	0x20000150
 8001c00:	20000470 	.word	0x20000470
 8001c04:	2000016c 	.word	0x2000016c
 8001c08:	20000478 	.word	0x20000478
 8001c0c:	20000038 	.word	0x20000038
 8001c10:	20000420 	.word	0x20000420
 8001c14:	20000054 	.word	0x20000054
 8001c18:	20000428 	.word	0x20000428
 8001c1c:	20000070 	.word	0x20000070
 8001c20:	20000430 	.word	0x20000430
 8001c24:	080173e0 	.word	0x080173e0
 8001c28:	20000434 	.word	0x20000434
 8001c2c:	0801cd8c 	.word	0x0801cd8c
 8001c30:	2000043c 	.word	0x2000043c
 8001c34:	08022234 	.word	0x08022234
 8001c38:	08027218 	.word	0x08027218
 8001c3c:	20000444 	.word	0x20000444
 8001c40:	0802bd80 	.word	0x0802bd80
 8001c44:	20000454 	.word	0x20000454
 8001c48:	2000044c 	.word	0x2000044c
 8001c4c:	080304b0 	.word	0x080304b0
 8001c50:	2000045c 	.word	0x2000045c
 8001c54:	080347e8 	.word	0x080347e8
 8001c58:	20000464 	.word	0x20000464
 8001c5c:	08038758 	.word	0x08038758
 8001c60:	2000046c 	.word	0x2000046c
 8001c64:	0803c340 	.word	0x0803c340
 8001c68:	20000474 	.word	0x20000474
 8001c6c:	0800ad20 	.word	0x0800ad20
 8001c70:	0800e284 	.word	0x0800e284
 8001c74:	2000041c 	.word	0x2000041c
 8001c78:	080114e4 	.word	0x080114e4
 8001c7c:	20000424 	.word	0x20000424
 8001c80:	2000042c 	.word	0x2000042c

08001c84 <tranposition__increment_octave>:
	switch (activeOctave) {
 8001c84:	4b11      	ldr	r3, [pc, #68]	; (8001ccc <tranposition__increment_octave+0x48>)
 8001c86:	781a      	ldrb	r2, [r3, #0]
 8001c88:	2a05      	cmp	r2, #5
 8001c8a:	d81c      	bhi.n	8001cc6 <tranposition__increment_octave+0x42>
 8001c8c:	e8df f002 	tbb	[pc, r2]
 8001c90:	130f0307 	.word	0x130f0307
 8001c94:	0b17      	.short	0x0b17
 8001c96:	2202      	movs	r2, #2
		activeOctave = OCTAVE_2;
 8001c98:	701a      	strb	r2, [r3, #0]
	update_note_tables();
 8001c9a:	f7ff bf13 	b.w	8001ac4 <update_note_tables>
	switch (activeOctave) {
 8001c9e:	2201      	movs	r2, #1
		activeOctave = OCTAVE_2;
 8001ca0:	701a      	strb	r2, [r3, #0]
	update_note_tables();
 8001ca2:	f7ff bf0f 	b.w	8001ac4 <update_note_tables>
		break;
 8001ca6:	2206      	movs	r2, #6
		activeOctave = OCTAVE_2;
 8001ca8:	701a      	strb	r2, [r3, #0]
	update_note_tables();
 8001caa:	f7ff bf0b 	b.w	8001ac4 <update_note_tables>
		break;
 8001cae:	2203      	movs	r2, #3
		activeOctave = OCTAVE_2;
 8001cb0:	701a      	strb	r2, [r3, #0]
	update_note_tables();
 8001cb2:	f7ff bf07 	b.w	8001ac4 <update_note_tables>
		break;
 8001cb6:	2204      	movs	r2, #4
		activeOctave = OCTAVE_2;
 8001cb8:	701a      	strb	r2, [r3, #0]
	update_note_tables();
 8001cba:	f7ff bf03 	b.w	8001ac4 <update_note_tables>
		break;
 8001cbe:	2205      	movs	r2, #5
		activeOctave = OCTAVE_2;
 8001cc0:	701a      	strb	r2, [r3, #0]
	update_note_tables();
 8001cc2:	f7ff beff 	b.w	8001ac4 <update_note_tables>
		break;
 8001cc6:	2200      	movs	r2, #0
 8001cc8:	e7e6      	b.n	8001c98 <tranposition__increment_octave+0x14>
 8001cca:	bf00      	nop
 8001ccc:	20000188 	.word	0x20000188

08001cd0 <tranposition__decrement_octave>:
	switch (activeOctave) {
 8001cd0:	4b11      	ldr	r3, [pc, #68]	; (8001d18 <tranposition__decrement_octave+0x48>)
 8001cd2:	781a      	ldrb	r2, [r3, #0]
 8001cd4:	2a05      	cmp	r2, #5
 8001cd6:	d81c      	bhi.n	8001d12 <tranposition__decrement_octave+0x42>
 8001cd8:	e8df f002 	tbb	[pc, r2]
 8001cdc:	130f0307 	.word	0x130f0307
 8001ce0:	0b17      	.short	0x0b17
 8001ce2:	2200      	movs	r2, #0
		activeOctave = OCTAVE_7;
 8001ce4:	701a      	strb	r2, [r3, #0]
	update_note_tables();
 8001ce6:	f7ff beed 	b.w	8001ac4 <update_note_tables>
	switch (activeOctave) {
 8001cea:	2206      	movs	r2, #6
		activeOctave = OCTAVE_7;
 8001cec:	701a      	strb	r2, [r3, #0]
	update_note_tables();
 8001cee:	f7ff bee9 	b.w	8001ac4 <update_note_tables>
		break;
 8001cf2:	2204      	movs	r2, #4
		activeOctave = OCTAVE_7;
 8001cf4:	701a      	strb	r2, [r3, #0]
	update_note_tables();
 8001cf6:	f7ff bee5 	b.w	8001ac4 <update_note_tables>
		break;
 8001cfa:	2201      	movs	r2, #1
		activeOctave = OCTAVE_7;
 8001cfc:	701a      	strb	r2, [r3, #0]
	update_note_tables();
 8001cfe:	f7ff bee1 	b.w	8001ac4 <update_note_tables>
		break;
 8001d02:	2202      	movs	r2, #2
		activeOctave = OCTAVE_7;
 8001d04:	701a      	strb	r2, [r3, #0]
	update_note_tables();
 8001d06:	f7ff bedd 	b.w	8001ac4 <update_note_tables>
		break;
 8001d0a:	2203      	movs	r2, #3
		activeOctave = OCTAVE_7;
 8001d0c:	701a      	strb	r2, [r3, #0]
	update_note_tables();
 8001d0e:	f7ff bed9 	b.w	8001ac4 <update_note_tables>
		break;
 8001d12:	2205      	movs	r2, #5
 8001d14:	e7e6      	b.n	8001ce4 <tranposition__decrement_octave+0x14>
 8001d16:	bf00      	nop
 8001d18:	20000188 	.word	0x20000188

08001d1c <tranposition__note_update>:
	/****************************************************************
		 This first section of Code is to handle the reseting of each index.
		 Normally this would be done at the end, but since we might be switching octaves
		 we need to make sure that our indexes are restarted.
	*********************************************************************/
		if (my_index[NOTE_C] > current_C_SAMPLES)
 8001d1c:	4bad      	ldr	r3, [pc, #692]	; (8001fd4 <tranposition__note_update+0x2b8>)
 8001d1e:	4aae      	ldr	r2, [pc, #696]	; (8001fd8 <tranposition__note_update+0x2bc>)
 8001d20:	6818      	ldr	r0, [r3, #0]
 8001d22:	6812      	ldr	r2, [r2, #0]
			my_index[NOTE_C] = 0;
		if (my_index[NOTE_Cs] > current_Cs_SAMPLES)
 8001d24:	6859      	ldr	r1, [r3, #4]
		if (my_index[NOTE_C] > current_C_SAMPLES)
 8001d26:	4290      	cmp	r0, r2
			my_index[NOTE_C] = 0;
 8001d28:	bfc8      	it	gt
 8001d2a:	2000      	movgt	r0, #0
		if (my_index[NOTE_Cs] > current_Cs_SAMPLES)
 8001d2c:	4aab      	ldr	r2, [pc, #684]	; (8001fdc <tranposition__note_update+0x2c0>)
int tranposition__note_update() {
 8001d2e:	e92d 4ff0 	stmdb	sp!, {r4, r5, r6, r7, r8, r9, sl, fp, lr}
			my_index[NOTE_C] = 0;
 8001d32:	bfc8      	it	gt
 8001d34:	6018      	strgt	r0, [r3, #0]
		if (my_index[NOTE_Cs] > current_Cs_SAMPLES)
 8001d36:	6812      	ldr	r2, [r2, #0]
			my_index[NOTE_Cs] = 0;
		if (my_index[NOTE_D] > current_D_SAMPLES)
 8001d38:	689c      	ldr	r4, [r3, #8]
			my_index[NOTE_D] = 0;
		if (my_index[NOTE_Ds] > current_Ds_SAMPLES)
 8001d3a:	f8d3 a00c 	ldr.w	sl, [r3, #12]
		if (my_index[NOTE_Cs] > current_Cs_SAMPLES)
 8001d3e:	4291      	cmp	r1, r2
			my_index[NOTE_Cs] = 0;
 8001d40:	bfc8      	it	gt
 8001d42:	2100      	movgt	r1, #0
		if (my_index[NOTE_D] > current_D_SAMPLES)
 8001d44:	4aa6      	ldr	r2, [pc, #664]	; (8001fe0 <tranposition__note_update+0x2c4>)
			my_index[NOTE_Cs] = 0;
 8001d46:	bfc8      	it	gt
 8001d48:	6059      	strgt	r1, [r3, #4]
		if (my_index[NOTE_D] > current_D_SAMPLES)
 8001d4a:	6812      	ldr	r2, [r2, #0]
 8001d4c:	4294      	cmp	r4, r2
			my_index[NOTE_D] = 0;
 8001d4e:	bfc8      	it	gt
 8001d50:	2400      	movgt	r4, #0
		if (my_index[NOTE_Ds] > current_Ds_SAMPLES)
 8001d52:	4aa4      	ldr	r2, [pc, #656]	; (8001fe4 <tranposition__note_update+0x2c8>)
			my_index[NOTE_D] = 0;
 8001d54:	bfc8      	it	gt
 8001d56:	609c      	strgt	r4, [r3, #8]
		if (my_index[NOTE_Ds] > current_Ds_SAMPLES)
 8001d58:	6812      	ldr	r2, [r2, #0]
 8001d5a:	4592      	cmp	sl, r2
int tranposition__note_update() {
 8001d5c:	b08f      	sub	sp, #60	; 0x3c
		if (my_index[NOTE_Ds] > current_Ds_SAMPLES)
 8001d5e:	dd02      	ble.n	8001d66 <tranposition__note_update+0x4a>
			my_index[NOTE_Ds] = 0;
 8001d60:	2200      	movs	r2, #0
 8001d62:	60da      	str	r2, [r3, #12]
 8001d64:	4692      	mov	sl, r2
		if (my_index[NOTE_E] > current_E_SAMPLES)
 8001d66:	4aa0      	ldr	r2, [pc, #640]	; (8001fe8 <tranposition__note_update+0x2cc>)
 8001d68:	f8d3 9010 	ldr.w	r9, [r3, #16]
 8001d6c:	6812      	ldr	r2, [r2, #0]
 8001d6e:	4591      	cmp	r9, r2
 8001d70:	dd02      	ble.n	8001d78 <tranposition__note_update+0x5c>
			my_index[NOTE_E] = 0;
 8001d72:	2200      	movs	r2, #0
 8001d74:	611a      	str	r2, [r3, #16]
 8001d76:	4691      	mov	r9, r2
		if (my_index[NOTE_F] > current_F_SAMPLES)
 8001d78:	4a9c      	ldr	r2, [pc, #624]	; (8001fec <tranposition__note_update+0x2d0>)
 8001d7a:	f8d3 8014 	ldr.w	r8, [r3, #20]
 8001d7e:	6812      	ldr	r2, [r2, #0]
 8001d80:	4590      	cmp	r8, r2
 8001d82:	dd02      	ble.n	8001d8a <tranposition__note_update+0x6e>
			my_index[NOTE_F] = 0;
 8001d84:	2200      	movs	r2, #0
 8001d86:	615a      	str	r2, [r3, #20]
 8001d88:	4690      	mov	r8, r2
		if (my_index[NOTE_Fs] > current_Fs_SAMPLES)
 8001d8a:	4a99      	ldr	r2, [pc, #612]	; (8001ff0 <tranposition__note_update+0x2d4>)
 8001d8c:	f8d3 e018 	ldr.w	lr, [r3, #24]
 8001d90:	6812      	ldr	r2, [r2, #0]
 8001d92:	4596      	cmp	lr, r2
 8001d94:	dd02      	ble.n	8001d9c <tranposition__note_update+0x80>
			my_index[NOTE_Fs] = 0;
 8001d96:	2200      	movs	r2, #0
 8001d98:	619a      	str	r2, [r3, #24]
 8001d9a:	4696      	mov	lr, r2
		if (my_index[NOTE_G] > current_G_SAMPLES)
 8001d9c:	4a95      	ldr	r2, [pc, #596]	; (8001ff4 <tranposition__note_update+0x2d8>)
 8001d9e:	f8d3 c01c 	ldr.w	ip, [r3, #28]
 8001da2:	6812      	ldr	r2, [r2, #0]
 8001da4:	4594      	cmp	ip, r2
 8001da6:	dd02      	ble.n	8001dae <tranposition__note_update+0x92>
			my_index[NOTE_G] = 0;
 8001da8:	2200      	movs	r2, #0
 8001daa:	61da      	str	r2, [r3, #28]
 8001dac:	4694      	mov	ip, r2
		if (my_index[NOTE_Gs] > current_Gs_SAMPLES)
 8001dae:	4a92      	ldr	r2, [pc, #584]	; (8001ff8 <tranposition__note_update+0x2dc>)
 8001db0:	6a1f      	ldr	r7, [r3, #32]
 8001db2:	6812      	ldr	r2, [r2, #0]
			my_index[NOTE_Gs] = 0;
		if (my_index[NOTE_A] > current_A_SAMPLES)
 8001db4:	6a5e      	ldr	r6, [r3, #36]	; 0x24
			my_index[NOTE_A] = 0;
		if (my_index[NOTE_As] > current_As_SAMPLES)
 8001db6:	6a9d      	ldr	r5, [r3, #40]	; 0x28
		if (my_index[NOTE_Gs] > current_Gs_SAMPLES)
 8001db8:	4297      	cmp	r7, r2
			my_index[NOTE_Gs] = 0;
 8001dba:	bfc8      	it	gt
 8001dbc:	2700      	movgt	r7, #0
		if (my_index[NOTE_A] > current_A_SAMPLES)
 8001dbe:	4a8f      	ldr	r2, [pc, #572]	; (8001ffc <tranposition__note_update+0x2e0>)
			my_index[NOTE_Gs] = 0;
 8001dc0:	bfc8      	it	gt
 8001dc2:	621f      	strgt	r7, [r3, #32]
		if (my_index[NOTE_A] > current_A_SAMPLES)
 8001dc4:	6812      	ldr	r2, [r2, #0]
 8001dc6:	4296      	cmp	r6, r2
			my_index[NOTE_A] = 0;
 8001dc8:	bfc8      	it	gt
 8001dca:	2600      	movgt	r6, #0
		if (my_index[NOTE_As] > current_As_SAMPLES)
 8001dcc:	4a8c      	ldr	r2, [pc, #560]	; (8002000 <tranposition__note_update+0x2e4>)
			my_index[NOTE_A] = 0;
 8001dce:	bfc8      	it	gt
 8001dd0:	625e      	strgt	r6, [r3, #36]	; 0x24
		if (my_index[NOTE_As] > current_As_SAMPLES)
 8001dd2:	6812      	ldr	r2, [r2, #0]
 8001dd4:	9500      	str	r5, [sp, #0]
 8001dd6:	4295      	cmp	r5, r2
 8001dd8:	dd02      	ble.n	8001de0 <tranposition__note_update+0xc4>
			my_index[NOTE_As] = 0;
 8001dda:	2200      	movs	r2, #0
 8001ddc:	629a      	str	r2, [r3, #40]	; 0x28
 8001dde:	9200      	str	r2, [sp, #0]
		if (my_index[NOTE_B] > current_B_SAMPLES)
 8001de0:	4a88      	ldr	r2, [pc, #544]	; (8002004 <tranposition__note_update+0x2e8>)
 8001de2:	6add      	ldr	r5, [r3, #44]	; 0x2c
 8001de4:	6812      	ldr	r2, [r2, #0]
 8001de6:	9501      	str	r5, [sp, #4]
 8001de8:	4295      	cmp	r5, r2
 8001dea:	dd02      	ble.n	8001df2 <tranposition__note_update+0xd6>
			my_index[NOTE_B] = 0;
 8001dec:	2200      	movs	r2, #0
 8001dee:	62da      	str	r2, [r3, #44]	; 0x2c
 8001df0:	9201      	str	r2, [sp, #4]
	 * This first batch of values is to look update the value for each Note.
	 * By using a list and different indexes we can speed up the program with good spatial locality
	 * If the note is active then we update the value. Otherwise we return a zero.
	 ***************************************************************************/
	int wave_out =0;
	wave_out	+= active[NOTE_C] ? (current_C_TABLE[my_index[NOTE_C]] * decay_value_C) : 0;
 8001df2:	4a85      	ldr	r2, [pc, #532]	; (8002008 <tranposition__note_update+0x2ec>)
 8001df4:	6815      	ldr	r5, [r2, #0]
 8001df6:	9502      	str	r5, [sp, #8]
 8001df8:	2d00      	cmp	r5, #0
 8001dfa:	f000 8177 	beq.w	80020ec <tranposition__note_update+0x3d0>
 8001dfe:	4d83      	ldr	r5, [pc, #524]	; (800200c <tranposition__note_update+0x2f0>)
 8001e00:	682d      	ldr	r5, [r5, #0]
 8001e02:	eb05 0580 	add.w	r5, r5, r0, lsl #2
 8001e06:	edd5 7a00 	vldr	s15, [r5]
 8001e0a:	4d81      	ldr	r5, [pc, #516]	; (8002010 <tranposition__note_update+0x2f4>)
 8001e0c:	eef8 7ae7 	vcvt.f32.s32	s15, s15
 8001e10:	ed95 7a00 	vldr	s14, [r5]
 8001e14:	ee67 7a87 	vmul.f32	s15, s15, s14
 8001e18:	eefd 7ae7 	vcvt.s32.f32	s15, s15
	wave_out	+= active[NOTE_Cs] ? (current_Cs_TABLE[my_index[NOTE_Cs]] * decay_value_Cs) : 0;
 8001e1c:	eef8 7ae7 	vcvt.f32.s32	s15, s15
 8001e20:	6855      	ldr	r5, [r2, #4]
 8001e22:	9503      	str	r5, [sp, #12]
 8001e24:	b165      	cbz	r5, 8001e40 <tranposition__note_update+0x124>
 8001e26:	4d7b      	ldr	r5, [pc, #492]	; (8002014 <tranposition__note_update+0x2f8>)
 8001e28:	682d      	ldr	r5, [r5, #0]
 8001e2a:	eb05 0581 	add.w	r5, r5, r1, lsl #2
 8001e2e:	ed95 7a00 	vldr	s14, [r5]
 8001e32:	4d79      	ldr	r5, [pc, #484]	; (8002018 <tranposition__note_update+0x2fc>)
 8001e34:	eeb8 7ac7 	vcvt.f32.s32	s14, s14
 8001e38:	edd5 6a00 	vldr	s13, [r5]
 8001e3c:	eee7 7a26 	vfma.f32	s15, s14, s13
	wave_out 	+= active[NOTE_D] ? (current_D_TABLE[my_index[NOTE_D]] * decay_value_D) : 0;
 8001e40:	6895      	ldr	r5, [r2, #8]
 8001e42:	9504      	str	r5, [sp, #16]
	wave_out	+= active[NOTE_Cs] ? (current_Cs_TABLE[my_index[NOTE_Cs]] * decay_value_Cs) : 0;
 8001e44:	eefd 7ae7 	vcvt.s32.f32	s15, s15
	wave_out 	+= active[NOTE_D] ? (current_D_TABLE[my_index[NOTE_D]] * decay_value_D) : 0;
 8001e48:	eef8 7ae7 	vcvt.f32.s32	s15, s15
 8001e4c:	b165      	cbz	r5, 8001e68 <tranposition__note_update+0x14c>
 8001e4e:	4d73      	ldr	r5, [pc, #460]	; (800201c <tranposition__note_update+0x300>)
 8001e50:	682d      	ldr	r5, [r5, #0]
 8001e52:	eb05 0584 	add.w	r5, r5, r4, lsl #2
 8001e56:	ed95 7a00 	vldr	s14, [r5]
 8001e5a:	4d71      	ldr	r5, [pc, #452]	; (8002020 <tranposition__note_update+0x304>)
 8001e5c:	eeb8 7ac7 	vcvt.f32.s32	s14, s14
 8001e60:	edd5 6a00 	vldr	s13, [r5]
 8001e64:	eee7 7a26 	vfma.f32	s15, s14, s13
	wave_out 	+= active[NOTE_Ds] ? (current_Ds_TABLE[my_index[NOTE_Ds]] *decay_value_Ds) : 0;
 8001e68:	68d5      	ldr	r5, [r2, #12]
 8001e6a:	9505      	str	r5, [sp, #20]
	wave_out 	+= active[NOTE_D] ? (current_D_TABLE[my_index[NOTE_D]] * decay_value_D) : 0;
 8001e6c:	eefd 7ae7 	vcvt.s32.f32	s15, s15
	wave_out 	+= active[NOTE_Ds] ? (current_Ds_TABLE[my_index[NOTE_Ds]] *decay_value_Ds) : 0;
 8001e70:	eef8 7ae7 	vcvt.f32.s32	s15, s15
 8001e74:	b165      	cbz	r5, 8001e90 <tranposition__note_update+0x174>
 8001e76:	4d6b      	ldr	r5, [pc, #428]	; (8002024 <tranposition__note_update+0x308>)
 8001e78:	682d      	ldr	r5, [r5, #0]
 8001e7a:	eb05 058a 	add.w	r5, r5, sl, lsl #2
 8001e7e:	ed95 7a00 	vldr	s14, [r5]
 8001e82:	4d69      	ldr	r5, [pc, #420]	; (8002028 <tranposition__note_update+0x30c>)
 8001e84:	eeb8 7ac7 	vcvt.f32.s32	s14, s14
 8001e88:	edd5 6a00 	vldr	s13, [r5]
 8001e8c:	eee7 7a26 	vfma.f32	s15, s14, s13
	wave_out 	+= active[NOTE_E] ? (current_E_TABLE[my_index[NOTE_E]] * decay_value_E) : 0;
 8001e90:	6915      	ldr	r5, [r2, #16]
 8001e92:	9506      	str	r5, [sp, #24]
	wave_out 	+= active[NOTE_Ds] ? (current_Ds_TABLE[my_index[NOTE_Ds]] *decay_value_Ds) : 0;
 8001e94:	eefd 7ae7 	vcvt.s32.f32	s15, s15
	wave_out 	+= active[NOTE_E] ? (current_E_TABLE[my_index[NOTE_E]] * decay_value_E) : 0;
 8001e98:	eef8 7ae7 	vcvt.f32.s32	s15, s15
 8001e9c:	b165      	cbz	r5, 8001eb8 <tranposition__note_update+0x19c>
 8001e9e:	4d63      	ldr	r5, [pc, #396]	; (800202c <tranposition__note_update+0x310>)
 8001ea0:	682d      	ldr	r5, [r5, #0]
 8001ea2:	eb05 0589 	add.w	r5, r5, r9, lsl #2
 8001ea6:	ed95 7a00 	vldr	s14, [r5]
 8001eaa:	4d61      	ldr	r5, [pc, #388]	; (8002030 <tranposition__note_update+0x314>)
 8001eac:	eeb8 7ac7 	vcvt.f32.s32	s14, s14
 8001eb0:	edd5 6a00 	vldr	s13, [r5]
 8001eb4:	eee7 7a26 	vfma.f32	s15, s14, s13
	wave_out 	+= active[NOTE_F] ? (current_F_TABLE[my_index[NOTE_F]] * decay_value_F) : 0;
 8001eb8:	6955      	ldr	r5, [r2, #20]
 8001eba:	9507      	str	r5, [sp, #28]
	wave_out 	+= active[NOTE_E] ? (current_E_TABLE[my_index[NOTE_E]] * decay_value_E) : 0;
 8001ebc:	eefd 7ae7 	vcvt.s32.f32	s15, s15
	wave_out 	+= active[NOTE_F] ? (current_F_TABLE[my_index[NOTE_F]] * decay_value_F) : 0;
 8001ec0:	eef8 7ae7 	vcvt.f32.s32	s15, s15
 8001ec4:	b165      	cbz	r5, 8001ee0 <tranposition__note_update+0x1c4>
 8001ec6:	4d5b      	ldr	r5, [pc, #364]	; (8002034 <tranposition__note_update+0x318>)
 8001ec8:	682d      	ldr	r5, [r5, #0]
 8001eca:	eb05 0588 	add.w	r5, r5, r8, lsl #2
 8001ece:	ed95 7a00 	vldr	s14, [r5]
 8001ed2:	4d59      	ldr	r5, [pc, #356]	; (8002038 <tranposition__note_update+0x31c>)
 8001ed4:	eeb8 7ac7 	vcvt.f32.s32	s14, s14
 8001ed8:	edd5 6a00 	vldr	s13, [r5]
 8001edc:	eee7 7a26 	vfma.f32	s15, s14, s13
	wave_out 	+= active[NOTE_Fs] ? (current_Fs_TABLE[my_index[NOTE_Fs]] * decay_value_Fs) : 0;
 8001ee0:	6995      	ldr	r5, [r2, #24]
 8001ee2:	9508      	str	r5, [sp, #32]
	wave_out 	+= active[NOTE_F] ? (current_F_TABLE[my_index[NOTE_F]] * decay_value_F) : 0;
 8001ee4:	eefd 7ae7 	vcvt.s32.f32	s15, s15
	wave_out 	+= active[NOTE_Fs] ? (current_Fs_TABLE[my_index[NOTE_Fs]] * decay_value_Fs) : 0;
 8001ee8:	eef8 7ae7 	vcvt.f32.s32	s15, s15
 8001eec:	b165      	cbz	r5, 8001f08 <tranposition__note_update+0x1ec>
 8001eee:	4d53      	ldr	r5, [pc, #332]	; (800203c <tranposition__note_update+0x320>)
 8001ef0:	682d      	ldr	r5, [r5, #0]
 8001ef2:	eb05 058e 	add.w	r5, r5, lr, lsl #2
 8001ef6:	ed95 7a00 	vldr	s14, [r5]
 8001efa:	4d51      	ldr	r5, [pc, #324]	; (8002040 <tranposition__note_update+0x324>)
 8001efc:	eeb8 7ac7 	vcvt.f32.s32	s14, s14
 8001f00:	edd5 6a00 	vldr	s13, [r5]
 8001f04:	eee7 7a26 	vfma.f32	s15, s14, s13
	wave_out 	+= active[NOTE_G] ? (current_G_TABLE[my_index[NOTE_G]] * decay_value_G) : 0;
 8001f08:	69d5      	ldr	r5, [r2, #28]
 8001f0a:	9509      	str	r5, [sp, #36]	; 0x24
	wave_out 	+= active[NOTE_Fs] ? (current_Fs_TABLE[my_index[NOTE_Fs]] * decay_value_Fs) : 0;
 8001f0c:	eefd 7ae7 	vcvt.s32.f32	s15, s15
	wave_out 	+= active[NOTE_G] ? (current_G_TABLE[my_index[NOTE_G]] * decay_value_G) : 0;
 8001f10:	eef8 7ae7 	vcvt.f32.s32	s15, s15
 8001f14:	b165      	cbz	r5, 8001f30 <tranposition__note_update+0x214>
 8001f16:	4d4b      	ldr	r5, [pc, #300]	; (8002044 <tranposition__note_update+0x328>)
 8001f18:	682d      	ldr	r5, [r5, #0]
 8001f1a:	eb05 058c 	add.w	r5, r5, ip, lsl #2
 8001f1e:	ed95 7a00 	vldr	s14, [r5]
 8001f22:	4d49      	ldr	r5, [pc, #292]	; (8002048 <tranposition__note_update+0x32c>)
 8001f24:	eeb8 7ac7 	vcvt.f32.s32	s14, s14
 8001f28:	edd5 6a00 	vldr	s13, [r5]
 8001f2c:	eee7 7a26 	vfma.f32	s15, s14, s13
	wave_out 	+= active[NOTE_Gs] ? (current_Gs_TABLE[my_index[NOTE_Gs]] * decay_value_Gs): 0;
 8001f30:	6a15      	ldr	r5, [r2, #32]
 8001f32:	950a      	str	r5, [sp, #40]	; 0x28
	wave_out 	+= active[NOTE_G] ? (current_G_TABLE[my_index[NOTE_G]] * decay_value_G) : 0;
 8001f34:	eefd 7ae7 	vcvt.s32.f32	s15, s15
	wave_out 	+= active[NOTE_Gs] ? (current_Gs_TABLE[my_index[NOTE_Gs]] * decay_value_Gs): 0;
 8001f38:	eef8 7ae7 	vcvt.f32.s32	s15, s15
 8001f3c:	b165      	cbz	r5, 8001f58 <tranposition__note_update+0x23c>
 8001f3e:	4d43      	ldr	r5, [pc, #268]	; (800204c <tranposition__note_update+0x330>)
 8001f40:	682d      	ldr	r5, [r5, #0]
 8001f42:	eb05 0587 	add.w	r5, r5, r7, lsl #2
 8001f46:	ed95 7a00 	vldr	s14, [r5]
 8001f4a:	4d41      	ldr	r5, [pc, #260]	; (8002050 <tranposition__note_update+0x334>)
 8001f4c:	eeb8 7ac7 	vcvt.f32.s32	s14, s14
 8001f50:	edd5 6a00 	vldr	s13, [r5]
 8001f54:	eee7 7a26 	vfma.f32	s15, s14, s13
	wave_out 	+= active[NOTE_A] ? (current_A_TABLE[my_index[NOTE_A]] * decay_value_A) : 0;
 8001f58:	6a55      	ldr	r5, [r2, #36]	; 0x24
 8001f5a:	950b      	str	r5, [sp, #44]	; 0x2c
	wave_out 	+= active[NOTE_Gs] ? (current_Gs_TABLE[my_index[NOTE_Gs]] * decay_value_Gs): 0;
 8001f5c:	eefd 7ae7 	vcvt.s32.f32	s15, s15
	wave_out 	+= active[NOTE_A] ? (current_A_TABLE[my_index[NOTE_A]] * decay_value_A) : 0;
 8001f60:	eef8 7ae7 	vcvt.f32.s32	s15, s15
 8001f64:	b165      	cbz	r5, 8001f80 <tranposition__note_update+0x264>
 8001f66:	4d3b      	ldr	r5, [pc, #236]	; (8002054 <tranposition__note_update+0x338>)
 8001f68:	682d      	ldr	r5, [r5, #0]
 8001f6a:	eb05 0586 	add.w	r5, r5, r6, lsl #2
 8001f6e:	ed95 7a00 	vldr	s14, [r5]
 8001f72:	4d39      	ldr	r5, [pc, #228]	; (8002058 <tranposition__note_update+0x33c>)
 8001f74:	eeb8 7ac7 	vcvt.f32.s32	s14, s14
 8001f78:	edd5 6a00 	vldr	s13, [r5]
 8001f7c:	eee7 7a26 	vfma.f32	s15, s14, s13
	wave_out 	+= active[NOTE_As] ? (current_As_TABLE[my_index[NOTE_As]] * decay_value_As) : 0;
 8001f80:	6a95      	ldr	r5, [r2, #40]	; 0x28
 8001f82:	950c      	str	r5, [sp, #48]	; 0x30
	wave_out 	+= active[NOTE_A] ? (current_A_TABLE[my_index[NOTE_A]] * decay_value_A) : 0;
 8001f84:	eefd 7ae7 	vcvt.s32.f32	s15, s15
	wave_out 	+= active[NOTE_As] ? (current_As_TABLE[my_index[NOTE_As]] * decay_value_As) : 0;
 8001f88:	eef8 7ae7 	vcvt.f32.s32	s15, s15
 8001f8c:	b185      	cbz	r5, 8001fb0 <tranposition__note_update+0x294>
 8001f8e:	f8df b0cc 	ldr.w	fp, [pc, #204]	; 800205c <tranposition__note_update+0x340>
 8001f92:	9d00      	ldr	r5, [sp, #0]
 8001f94:	f8db b000 	ldr.w	fp, [fp]
 8001f98:	eb0b 0585 	add.w	r5, fp, r5, lsl #2
 8001f9c:	ed95 7a00 	vldr	s14, [r5]
 8001fa0:	f8df b0bc 	ldr.w	fp, [pc, #188]	; 8002060 <tranposition__note_update+0x344>
 8001fa4:	eeb8 7ac7 	vcvt.f32.s32	s14, s14
 8001fa8:	eddb 6a00 	vldr	s13, [fp]
 8001fac:	eee7 7a26 	vfma.f32	s15, s14, s13
	wave_out 	+= active[NOTE_B] ? (current_B_TABLE[my_index[NOTE_B]] * decay_value_B) : 0;
 8001fb0:	6ad2      	ldr	r2, [r2, #44]	; 0x2c
 8001fb2:	920d      	str	r2, [sp, #52]	; 0x34
	wave_out 	+= active[NOTE_As] ? (current_As_TABLE[my_index[NOTE_As]] * decay_value_As) : 0;
 8001fb4:	eefd 7ae7 	vcvt.s32.f32	s15, s15
	wave_out 	+= active[NOTE_B] ? (current_B_TABLE[my_index[NOTE_B]] * decay_value_B) : 0;
 8001fb8:	eef8 7ae7 	vcvt.f32.s32	s15, s15
 8001fbc:	2a00      	cmp	r2, #0
 8001fbe:	d05b      	beq.n	8002078 <tranposition__note_update+0x35c>
 8001fc0:	f8df b0a0 	ldr.w	fp, [pc, #160]	; 8002064 <tranposition__note_update+0x348>
 8001fc4:	9a01      	ldr	r2, [sp, #4]
 8001fc6:	f8db b000 	ldr.w	fp, [fp]
 8001fca:	eb0b 0282 	add.w	r2, fp, r2, lsl #2
 8001fce:	ed92 7a00 	vldr	s14, [r2]
 8001fd2:	e049      	b.n	8002068 <tranposition__note_update+0x34c>
 8001fd4:	20000364 	.word	0x20000364
 8001fd8:	20000434 	.word	0x20000434
 8001fdc:	2000043c 	.word	0x2000043c
 8001fe0:	20000444 	.word	0x20000444
 8001fe4:	2000044c 	.word	0x2000044c
 8001fe8:	20000454 	.word	0x20000454
 8001fec:	2000045c 	.word	0x2000045c
 8001ff0:	20000464 	.word	0x20000464
 8001ff4:	2000046c 	.word	0x2000046c
 8001ff8:	20000474 	.word	0x20000474
 8001ffc:	2000041c 	.word	0x2000041c
 8002000:	20000424 	.word	0x20000424
 8002004:	2000042c 	.word	0x2000042c
 8002008:	200001ac 	.word	0x200001ac
 800200c:	20000438 	.word	0x20000438
 8002010:	20000010 	.word	0x20000010
 8002014:	20000440 	.word	0x20000440
 8002018:	20000014 	.word	0x20000014
 800201c:	20000448 	.word	0x20000448
 8002020:	20000018 	.word	0x20000018
 8002024:	20000450 	.word	0x20000450
 8002028:	2000001c 	.word	0x2000001c
 800202c:	20000458 	.word	0x20000458
 8002030:	20000020 	.word	0x20000020
 8002034:	20000460 	.word	0x20000460
 8002038:	20000024 	.word	0x20000024
 800203c:	20000468 	.word	0x20000468
 8002040:	20000028 	.word	0x20000028
 8002044:	20000470 	.word	0x20000470
 8002048:	2000002c 	.word	0x2000002c
 800204c:	20000478 	.word	0x20000478
 8002050:	20000030 	.word	0x20000030
 8002054:	20000420 	.word	0x20000420
 8002058:	20000004 	.word	0x20000004
 800205c:	20000428 	.word	0x20000428
 8002060:	20000008 	.word	0x20000008
 8002064:	20000430 	.word	0x20000430
 8002068:	f8df b08c 	ldr.w	fp, [pc, #140]	; 80020f8 <tranposition__note_update+0x3dc>
 800206c:	eeb8 7ac7 	vcvt.f32.s32	s14, s14
 8002070:	eddb 6a00 	vldr	s13, [fp]
 8002074:	eee7 7a26 	vfma.f32	s15, s14, s13

	/* ***************************************************************
	 This batch of code is to just update the index if the note is active.
	 Since the active list should only ever hold a 0 or a 1, this code works. Avoid if statements
	 ***************************************************************************/
	my_index[NOTE_C] += active[NOTE_C];
 8002078:	9a02      	ldr	r2, [sp, #8]
	my_index[NOTE_F] += active[NOTE_F];
	my_index[NOTE_Fs] += active[NOTE_Fs];
	my_index[NOTE_G] += active[NOTE_G];
	my_index[NOTE_Gs] += active[NOTE_Gs];
	my_index[NOTE_A] += active[NOTE_A];
	my_index[NOTE_As] += active[NOTE_As];
 800207a:	9d0c      	ldr	r5, [sp, #48]	; 0x30
	my_index[NOTE_C] += active[NOTE_C];
 800207c:	4402      	add	r2, r0
 800207e:	4610      	mov	r0, r2
	my_index[NOTE_Cs] += active[NOTE_Cs];
 8002080:	9a03      	ldr	r2, [sp, #12]
 8002082:	440a      	add	r2, r1
 8002084:	4693      	mov	fp, r2
	my_index[NOTE_D] += active[NOTE_D];
 8002086:	9a04      	ldr	r2, [sp, #16]
	my_index[NOTE_B] += active[NOTE_B];
 8002088:	990d      	ldr	r1, [sp, #52]	; 0x34
	my_index[NOTE_D] += active[NOTE_D];
 800208a:	4422      	add	r2, r4
 800208c:	4614      	mov	r4, r2
	my_index[NOTE_Ds] += active[NOTE_Ds];
 800208e:	9a05      	ldr	r2, [sp, #20]
 8002090:	4452      	add	r2, sl
 8002092:	4692      	mov	sl, r2
	my_index[NOTE_E] += active[NOTE_E];
 8002094:	9a06      	ldr	r2, [sp, #24]
 8002096:	444a      	add	r2, r9
 8002098:	4691      	mov	r9, r2
	my_index[NOTE_F] += active[NOTE_F];
 800209a:	9a07      	ldr	r2, [sp, #28]
 800209c:	4442      	add	r2, r8
 800209e:	4690      	mov	r8, r2
	my_index[NOTE_Fs] += active[NOTE_Fs];
 80020a0:	9a08      	ldr	r2, [sp, #32]
 80020a2:	4472      	add	r2, lr
 80020a4:	4696      	mov	lr, r2
	my_index[NOTE_G] += active[NOTE_G];
 80020a6:	9a09      	ldr	r2, [sp, #36]	; 0x24
 80020a8:	4462      	add	r2, ip
 80020aa:	4694      	mov	ip, r2
	my_index[NOTE_Gs] += active[NOTE_Gs];
 80020ac:	9a0a      	ldr	r2, [sp, #40]	; 0x28
 80020ae:	443a      	add	r2, r7
 80020b0:	4617      	mov	r7, r2
	my_index[NOTE_A] += active[NOTE_A];
 80020b2:	9a0b      	ldr	r2, [sp, #44]	; 0x2c
 80020b4:	4432      	add	r2, r6
 80020b6:	4616      	mov	r6, r2
	wave_out 	+= active[NOTE_B] ? (current_B_TABLE[my_index[NOTE_B]] * decay_value_B) : 0;
 80020b8:	eefd 7ae7 	vcvt.s32.f32	s15, s15
	my_index[NOTE_As] += active[NOTE_As];
 80020bc:	9a00      	ldr	r2, [sp, #0]
 80020be:	4415      	add	r5, r2
	my_index[NOTE_B] += active[NOTE_B];
 80020c0:	9a01      	ldr	r2, [sp, #4]
	my_index[NOTE_Gs] += active[NOTE_Gs];
 80020c2:	621f      	str	r7, [r3, #32]
	my_index[NOTE_Cs] += active[NOTE_Cs];
 80020c4:	e9c3 0b00 	strd	r0, fp, [r3]
	wave_out 	+= active[NOTE_B] ? (current_B_TABLE[my_index[NOTE_B]] * decay_value_B) : 0;
 80020c8:	ee17 0a90 	vmov	r0, s15



	return	wave_out * 12;
 80020cc:	eb00 0040 	add.w	r0, r0, r0, lsl #1
	my_index[NOTE_B] += active[NOTE_B];
 80020d0:	4411      	add	r1, r2

}
 80020d2:	0080      	lsls	r0, r0, #2
	my_index[NOTE_Ds] += active[NOTE_Ds];
 80020d4:	e9c3 4a02 	strd	r4, sl, [r3, #8]
	my_index[NOTE_F] += active[NOTE_F];
 80020d8:	e9c3 9804 	strd	r9, r8, [r3, #16]
	my_index[NOTE_G] += active[NOTE_G];
 80020dc:	e9c3 ec06 	strd	lr, ip, [r3, #24]
	my_index[NOTE_B] += active[NOTE_B];
 80020e0:	e9c3 510a 	strd	r5, r1, [r3, #40]	; 0x28
	my_index[NOTE_A] += active[NOTE_A];
 80020e4:	625e      	str	r6, [r3, #36]	; 0x24
}
 80020e6:	b00f      	add	sp, #60	; 0x3c
 80020e8:	e8bd 8ff0 	ldmia.w	sp!, {r4, r5, r6, r7, r8, r9, sl, fp, pc}
 80020ec:	eddf 7a01 	vldr	s15, [pc, #4]	; 80020f4 <tranposition__note_update+0x3d8>
 80020f0:	e696      	b.n	8001e20 <tranposition__note_update+0x104>
 80020f2:	bf00      	nop
 80020f4:	00000000 	.word	0x00000000
 80020f8:	2000000c 	.word	0x2000000c

080020fc <Reset_Handler>:
 80020fc:	f8df d034 	ldr.w	sp, [pc, #52]	; 8002134 <LoopForever+0x2>
 8002100:	f7ff fcd6 	bl	8001ab0 <SystemInit>
 8002104:	480c      	ldr	r0, [pc, #48]	; (8002138 <LoopForever+0x6>)
 8002106:	490d      	ldr	r1, [pc, #52]	; (800213c <LoopForever+0xa>)
 8002108:	4a0d      	ldr	r2, [pc, #52]	; (8002140 <LoopForever+0xe>)
 800210a:	2300      	movs	r3, #0
 800210c:	e002      	b.n	8002114 <LoopCopyDataInit>

0800210e <CopyDataInit>:
 800210e:	58d4      	ldr	r4, [r2, r3]
 8002110:	50c4      	str	r4, [r0, r3]
 8002112:	3304      	adds	r3, #4

08002114 <LoopCopyDataInit>:
 8002114:	18c4      	adds	r4, r0, r3
 8002116:	428c      	cmp	r4, r1
 8002118:	d3f9      	bcc.n	800210e <CopyDataInit>
 800211a:	4a0a      	ldr	r2, [pc, #40]	; (8002144 <LoopForever+0x12>)
 800211c:	4c0a      	ldr	r4, [pc, #40]	; (8002148 <LoopForever+0x16>)
 800211e:	2300      	movs	r3, #0
 8002120:	e001      	b.n	8002126 <LoopFillZerobss>

08002122 <FillZerobss>:
 8002122:	6013      	str	r3, [r2, #0]
 8002124:	3204      	adds	r2, #4

08002126 <LoopFillZerobss>:
 8002126:	42a2      	cmp	r2, r4
 8002128:	d3fb      	bcc.n	8002122 <FillZerobss>
 800212a:	f002 fda7 	bl	8004c7c <__libc_init_array>
 800212e:	f7fe fa17 	bl	8000560 <main>

08002132 <LoopForever>:
 8002132:	e7fe      	b.n	8002132 <LoopForever>
 8002134:	20018000 	.word	0x20018000
 8002138:	20000000 	.word	0x20000000
 800213c:	20000190 	.word	0x20000190
 8002140:	0803c380 	.word	0x0803c380
 8002144:	20000190 	.word	0x20000190
 8002148:	20000480 	.word	0x20000480

0800214c <ADC1_2_IRQHandler>:
 800214c:	e7fe      	b.n	800214c <ADC1_2_IRQHandler>
	...

08002150 <HAL_InitTick>:
 8002150:	b538      	push	{r3, r4, r5, lr}
 8002152:	4b0f      	ldr	r3, [pc, #60]	; (8002190 <HAL_InitTick+0x40>)
 8002154:	781b      	ldrb	r3, [r3, #0]
 8002156:	b90b      	cbnz	r3, 800215c <HAL_InitTick+0xc>
 8002158:	2001      	movs	r0, #1
 800215a:	bd38      	pop	{r3, r4, r5, pc}
 800215c:	490d      	ldr	r1, [pc, #52]	; (8002194 <HAL_InitTick+0x44>)
 800215e:	f44f 727a 	mov.w	r2, #1000	; 0x3e8
 8002162:	4605      	mov	r5, r0
 8002164:	fbb2 f3f3 	udiv	r3, r2, r3
 8002168:	6808      	ldr	r0, [r1, #0]
 800216a:	fbb0 f0f3 	udiv	r0, r0, r3
 800216e:	f000 f8af 	bl	80022d0 <HAL_SYSTICK_Config>
 8002172:	4604      	mov	r4, r0
 8002174:	2800      	cmp	r0, #0
 8002176:	d1ef      	bne.n	8002158 <HAL_InitTick+0x8>
 8002178:	2d0f      	cmp	r5, #15
 800217a:	d8ed      	bhi.n	8002158 <HAL_InitTick+0x8>
 800217c:	4602      	mov	r2, r0
 800217e:	4629      	mov	r1, r5
 8002180:	f04f 30ff 	mov.w	r0, #4294967295
 8002184:	f000 f858 	bl	8002238 <HAL_NVIC_SetPriority>
 8002188:	4b03      	ldr	r3, [pc, #12]	; (8002198 <HAL_InitTick+0x48>)
 800218a:	4620      	mov	r0, r4
 800218c:	601d      	str	r5, [r3, #0]
 800218e:	bd38      	pop	{r3, r4, r5, pc}
 8002190:	20000189 	.word	0x20000189
 8002194:	20000034 	.word	0x20000034
 8002198:	2000018c 	.word	0x2000018c

0800219c <HAL_Init>:
 800219c:	4a0a      	ldr	r2, [pc, #40]	; (80021c8 <HAL_Init+0x2c>)
 800219e:	6813      	ldr	r3, [r2, #0]
 80021a0:	f443 7380 	orr.w	r3, r3, #256	; 0x100
 80021a4:	b510      	push	{r4, lr}
 80021a6:	2003      	movs	r0, #3
 80021a8:	6013      	str	r3, [r2, #0]
 80021aa:	f000 f833 	bl	8002214 <HAL_NVIC_SetPriorityGrouping>
 80021ae:	2000      	movs	r0, #0
 80021b0:	f7ff ffce 	bl	8002150 <HAL_InitTick>
 80021b4:	b110      	cbz	r0, 80021bc <HAL_Init+0x20>
 80021b6:	2401      	movs	r4, #1
 80021b8:	4620      	mov	r0, r4
 80021ba:	bd10      	pop	{r4, pc}
 80021bc:	4604      	mov	r4, r0
 80021be:	f7ff f8b5 	bl	800132c <HAL_MspInit>
 80021c2:	4620      	mov	r0, r4
 80021c4:	bd10      	pop	{r4, pc}
 80021c6:	bf00      	nop
 80021c8:	40022000 	.word	0x40022000

080021cc <HAL_IncTick>:
 80021cc:	4a03      	ldr	r2, [pc, #12]	; (80021dc <HAL_IncTick+0x10>)
 80021ce:	4b04      	ldr	r3, [pc, #16]	; (80021e0 <HAL_IncTick+0x14>)
 80021d0:	6811      	ldr	r1, [r2, #0]
 80021d2:	781b      	ldrb	r3, [r3, #0]
 80021d4:	440b      	add	r3, r1
 80021d6:	6013      	str	r3, [r2, #0]
 80021d8:	4770      	bx	lr
 80021da:	bf00      	nop
 80021dc:	2000047c 	.word	0x2000047c
 80021e0:	20000189 	.word	0x20000189

080021e4 <HAL_GetTick>:
 80021e4:	4b01      	ldr	r3, [pc, #4]	; (80021ec <HAL_GetTick+0x8>)
 80021e6:	6818      	ldr	r0, [r3, #0]
 80021e8:	4770      	bx	lr
 80021ea:	bf00      	nop
 80021ec:	2000047c 	.word	0x2000047c

080021f0 <HAL_Delay>:
 80021f0:	b538      	push	{r3, r4, r5, lr}
 80021f2:	4604      	mov	r4, r0
 80021f4:	f7ff fff6 	bl	80021e4 <HAL_GetTick>
 80021f8:	1c63      	adds	r3, r4, #1
 80021fa:	4605      	mov	r5, r0
 80021fc:	d002      	beq.n	8002204 <HAL_Delay+0x14>
 80021fe:	4b04      	ldr	r3, [pc, #16]	; (8002210 <HAL_Delay+0x20>)
 8002200:	781b      	ldrb	r3, [r3, #0]
 8002202:	441c      	add	r4, r3
 8002204:	f7ff ffee 	bl	80021e4 <HAL_GetTick>
 8002208:	1b43      	subs	r3, r0, r5
 800220a:	42a3      	cmp	r3, r4
 800220c:	d3fa      	bcc.n	8002204 <HAL_Delay+0x14>
 800220e:	bd38      	pop	{r3, r4, r5, pc}
 8002210:	20000189 	.word	0x20000189

08002214 <HAL_NVIC_SetPriorityGrouping>:
 8002214:	4907      	ldr	r1, [pc, #28]	; (8002234 <HAL_NVIC_SetPriorityGrouping+0x20>)
 8002216:	68ca      	ldr	r2, [r1, #12]
 8002218:	0203      	lsls	r3, r0, #8
 800221a:	f64f 00ff 	movw	r0, #63743	; 0xf8ff
 800221e:	f403 63e0 	and.w	r3, r3, #1792	; 0x700
 8002222:	4002      	ands	r2, r0
 8002224:	4313      	orrs	r3, r2
 8002226:	f043 63bf 	orr.w	r3, r3, #100139008	; 0x5f80000
 800222a:	f443 3300 	orr.w	r3, r3, #131072	; 0x20000
 800222e:	60cb      	str	r3, [r1, #12]
 8002230:	4770      	bx	lr
 8002232:	bf00      	nop
 8002234:	e000ed00 	.word	0xe000ed00

08002238 <HAL_NVIC_SetPriority>:
 8002238:	4b1c      	ldr	r3, [pc, #112]	; (80022ac <HAL_NVIC_SetPriority+0x74>)
 800223a:	68db      	ldr	r3, [r3, #12]
 800223c:	f3c3 2302 	ubfx	r3, r3, #8, #3
 8002240:	b500      	push	{lr}
 8002242:	f1c3 0e07 	rsb	lr, r3, #7
 8002246:	f1be 0f04 	cmp.w	lr, #4
 800224a:	f103 0c04 	add.w	ip, r3, #4
 800224e:	bf28      	it	cs
 8002250:	f04f 0e04 	movcs.w	lr, #4
 8002254:	f1bc 0f06 	cmp.w	ip, #6
 8002258:	d91b      	bls.n	8002292 <HAL_NVIC_SetPriority+0x5a>
 800225a:	3b03      	subs	r3, #3
 800225c:	f04f 3cff 	mov.w	ip, #4294967295
 8002260:	fa0c fc03 	lsl.w	ip, ip, r3
 8002264:	ea22 020c 	bic.w	r2, r2, ip
 8002268:	f04f 3cff 	mov.w	ip, #4294967295
 800226c:	fa0c fc0e 	lsl.w	ip, ip, lr
 8002270:	ea21 010c 	bic.w	r1, r1, ip
 8002274:	4099      	lsls	r1, r3
 8002276:	2800      	cmp	r0, #0
 8002278:	ea41 0102 	orr.w	r1, r1, r2
 800227c:	db0c      	blt.n	8002298 <HAL_NVIC_SetPriority+0x60>
 800227e:	f100 4060 	add.w	r0, r0, #3758096384	; 0xe0000000
 8002282:	0109      	lsls	r1, r1, #4
 8002284:	f500 4061 	add.w	r0, r0, #57600	; 0xe100
 8002288:	b2c9      	uxtb	r1, r1
 800228a:	f880 1300 	strb.w	r1, [r0, #768]	; 0x300
 800228e:	f85d fb04 	ldr.w	pc, [sp], #4
 8002292:	2200      	movs	r2, #0
 8002294:	4613      	mov	r3, r2
 8002296:	e7e7      	b.n	8002268 <HAL_NVIC_SetPriority+0x30>
 8002298:	4b05      	ldr	r3, [pc, #20]	; (80022b0 <HAL_NVIC_SetPriority+0x78>)
 800229a:	f000 000f 	and.w	r0, r0, #15
 800229e:	0109      	lsls	r1, r1, #4
 80022a0:	4403      	add	r3, r0
 80022a2:	b2c9      	uxtb	r1, r1
 80022a4:	7619      	strb	r1, [r3, #24]
 80022a6:	f85d fb04 	ldr.w	pc, [sp], #4
 80022aa:	bf00      	nop
 80022ac:	e000ed00 	.word	0xe000ed00
 80022b0:	e000ecfc 	.word	0xe000ecfc

080022b4 <HAL_NVIC_EnableIRQ>:
 80022b4:	2800      	cmp	r0, #0
 80022b6:	db07      	blt.n	80022c8 <HAL_NVIC_EnableIRQ+0x14>
 80022b8:	4a04      	ldr	r2, [pc, #16]	; (80022cc <HAL_NVIC_EnableIRQ+0x18>)
 80022ba:	0941      	lsrs	r1, r0, #5
 80022bc:	2301      	movs	r3, #1
 80022be:	f000 001f 	and.w	r0, r0, #31
 80022c2:	4083      	lsls	r3, r0
 80022c4:	f842 3021 	str.w	r3, [r2, r1, lsl #2]
 80022c8:	4770      	bx	lr
 80022ca:	bf00      	nop
 80022cc:	e000e100 	.word	0xe000e100

080022d0 <HAL_SYSTICK_Config>:
 80022d0:	3801      	subs	r0, #1
 80022d2:	f1b0 7f80 	cmp.w	r0, #16777216	; 0x1000000
 80022d6:	d210      	bcs.n	80022fa <HAL_SYSTICK_Config+0x2a>
 80022d8:	b410      	push	{r4}
 80022da:	f04f 23e0 	mov.w	r3, #3758153728	; 0xe000e000
 80022de:	4c08      	ldr	r4, [pc, #32]	; (8002300 <HAL_SYSTICK_Config+0x30>)
 80022e0:	6158      	str	r0, [r3, #20]
 80022e2:	f04f 0cf0 	mov.w	ip, #240	; 0xf0
 80022e6:	f884 c023 	strb.w	ip, [r4, #35]	; 0x23
 80022ea:	2200      	movs	r2, #0
 80022ec:	2107      	movs	r1, #7
 80022ee:	4610      	mov	r0, r2
 80022f0:	619a      	str	r2, [r3, #24]
 80022f2:	f85d 4b04 	ldr.w	r4, [sp], #4
 80022f6:	6119      	str	r1, [r3, #16]
 80022f8:	4770      	bx	lr
 80022fa:	2001      	movs	r0, #1
 80022fc:	4770      	bx	lr
 80022fe:	bf00      	nop
 8002300:	e000ed00 	.word	0xe000ed00

08002304 <HAL_DAC_Init>:
 8002304:	b188      	cbz	r0, 800232a <HAL_DAC_Init+0x26>
 8002306:	b510      	push	{r4, lr}
 8002308:	7903      	ldrb	r3, [r0, #4]
 800230a:	4604      	mov	r4, r0
 800230c:	f003 02ff 	and.w	r2, r3, #255	; 0xff
 8002310:	b13b      	cbz	r3, 8002322 <HAL_DAC_Init+0x1e>
 8002312:	2300      	movs	r3, #0
 8002314:	2102      	movs	r1, #2
 8002316:	2201      	movs	r2, #1
 8002318:	7121      	strb	r1, [r4, #4]
 800231a:	6123      	str	r3, [r4, #16]
 800231c:	7122      	strb	r2, [r4, #4]
 800231e:	4618      	mov	r0, r3
 8002320:	bd10      	pop	{r4, pc}
 8002322:	7142      	strb	r2, [r0, #5]
 8002324:	f7ff f81a 	bl	800135c <HAL_DAC_MspInit>
 8002328:	e7f3      	b.n	8002312 <HAL_DAC_Init+0xe>
 800232a:	2001      	movs	r0, #1
 800232c:	4770      	bx	lr
 800232e:	bf00      	nop

08002330 <HAL_DAC_Start>:
 8002330:	7943      	ldrb	r3, [r0, #5]
 8002332:	2b01      	cmp	r3, #1
 8002334:	d027      	beq.n	8002386 <HAL_DAC_Start+0x56>
 8002336:	6802      	ldr	r2, [r0, #0]
 8002338:	2302      	movs	r3, #2
 800233a:	b410      	push	{r4}
 800233c:	7103      	strb	r3, [r0, #4]
 800233e:	6814      	ldr	r4, [r2, #0]
 8002340:	f001 0c10 	and.w	ip, r1, #16
 8002344:	2301      	movs	r3, #1
 8002346:	fa03 f30c 	lsl.w	r3, r3, ip
 800234a:	4323      	orrs	r3, r4
 800234c:	6013      	str	r3, [r2, #0]
 800234e:	6813      	ldr	r3, [r2, #0]
 8002350:	b979      	cbnz	r1, 8002372 <HAL_DAC_Start+0x42>
 8002352:	f003 033c 	and.w	r3, r3, #60	; 0x3c
 8002356:	2b04      	cmp	r3, #4
 8002358:	d103      	bne.n	8002362 <HAL_DAC_Start+0x32>
 800235a:	6853      	ldr	r3, [r2, #4]
 800235c:	f043 0301 	orr.w	r3, r3, #1
 8002360:	6053      	str	r3, [r2, #4]
 8002362:	2300      	movs	r3, #0
 8002364:	2201      	movs	r2, #1
 8002366:	7102      	strb	r2, [r0, #4]
 8002368:	7143      	strb	r3, [r0, #5]
 800236a:	f85d 4b04 	ldr.w	r4, [sp], #4
 800236e:	4618      	mov	r0, r3
 8002370:	4770      	bx	lr
 8002372:	f403 1370 	and.w	r3, r3, #3932160	; 0x3c0000
 8002376:	f5b3 2f80 	cmp.w	r3, #262144	; 0x40000
 800237a:	d1f2      	bne.n	8002362 <HAL_DAC_Start+0x32>
 800237c:	6853      	ldr	r3, [r2, #4]
 800237e:	f043 0302 	orr.w	r3, r3, #2
 8002382:	6053      	str	r3, [r2, #4]
 8002384:	e7ed      	b.n	8002362 <HAL_DAC_Start+0x32>
 8002386:	2002      	movs	r0, #2
 8002388:	4770      	bx	lr
 800238a:	bf00      	nop

0800238c <HAL_DAC_SetValue>:
 800238c:	b410      	push	{r4}
 800238e:	b083      	sub	sp, #12
 8002390:	6800      	ldr	r0, [r0, #0]
 8002392:	2400      	movs	r4, #0
 8002394:	9401      	str	r4, [sp, #4]
 8002396:	9001      	str	r0, [sp, #4]
 8002398:	b951      	cbnz	r1, 80023b0 <HAL_DAC_SetValue+0x24>
 800239a:	9901      	ldr	r1, [sp, #4]
 800239c:	3108      	adds	r1, #8
 800239e:	440a      	add	r2, r1
 80023a0:	9201      	str	r2, [sp, #4]
 80023a2:	9a01      	ldr	r2, [sp, #4]
 80023a4:	2000      	movs	r0, #0
 80023a6:	6013      	str	r3, [r2, #0]
 80023a8:	b003      	add	sp, #12
 80023aa:	f85d 4b04 	ldr.w	r4, [sp], #4
 80023ae:	4770      	bx	lr
 80023b0:	9901      	ldr	r1, [sp, #4]
 80023b2:	3114      	adds	r1, #20
 80023b4:	440a      	add	r2, r1
 80023b6:	9201      	str	r2, [sp, #4]
 80023b8:	e7f3      	b.n	80023a2 <HAL_DAC_SetValue+0x16>
 80023ba:	bf00      	nop

080023bc <HAL_DAC_DMAUnderrunCallbackCh1>:
 80023bc:	4770      	bx	lr
 80023be:	bf00      	nop

080023c0 <HAL_DAC_IRQHandler>:
 80023c0:	6803      	ldr	r3, [r0, #0]
 80023c2:	681a      	ldr	r2, [r3, #0]
 80023c4:	0491      	lsls	r1, r2, #18
 80023c6:	b510      	push	{r4, lr}
 80023c8:	4604      	mov	r4, r0
 80023ca:	d502      	bpl.n	80023d2 <HAL_DAC_IRQHandler+0x12>
 80023cc:	6b5a      	ldr	r2, [r3, #52]	; 0x34
 80023ce:	0492      	lsls	r2, r2, #18
 80023d0:	d418      	bmi.n	8002404 <HAL_DAC_IRQHandler+0x44>
 80023d2:	681a      	ldr	r2, [r3, #0]
 80023d4:	0091      	lsls	r1, r2, #2
 80023d6:	d502      	bpl.n	80023de <HAL_DAC_IRQHandler+0x1e>
 80023d8:	6b5a      	ldr	r2, [r3, #52]	; 0x34
 80023da:	0092      	lsls	r2, r2, #2
 80023dc:	d400      	bmi.n	80023e0 <HAL_DAC_IRQHandler+0x20>
 80023de:	bd10      	pop	{r4, pc}
 80023e0:	2204      	movs	r2, #4
 80023e2:	7122      	strb	r2, [r4, #4]
 80023e4:	6922      	ldr	r2, [r4, #16]
 80023e6:	f04f 5100 	mov.w	r1, #536870912	; 0x20000000
 80023ea:	f042 0202 	orr.w	r2, r2, #2
 80023ee:	6122      	str	r2, [r4, #16]
 80023f0:	6359      	str	r1, [r3, #52]	; 0x34
 80023f2:	681a      	ldr	r2, [r3, #0]
 80023f4:	f022 5280 	bic.w	r2, r2, #268435456	; 0x10000000
 80023f8:	4620      	mov	r0, r4
 80023fa:	601a      	str	r2, [r3, #0]
 80023fc:	e8bd 4010 	ldmia.w	sp!, {r4, lr}
 8002400:	f000 b8a8 	b.w	8002554 <HAL_DACEx_DMAUnderrunCallbackCh2>
 8002404:	2204      	movs	r2, #4
 8002406:	7102      	strb	r2, [r0, #4]
 8002408:	6902      	ldr	r2, [r0, #16]
 800240a:	f44f 5100 	mov.w	r1, #8192	; 0x2000
 800240e:	f042 0201 	orr.w	r2, r2, #1
 8002412:	6102      	str	r2, [r0, #16]
 8002414:	6359      	str	r1, [r3, #52]	; 0x34
 8002416:	681a      	ldr	r2, [r3, #0]
 8002418:	f422 5280 	bic.w	r2, r2, #4096	; 0x1000
 800241c:	601a      	str	r2, [r3, #0]
 800241e:	f7ff ffcd 	bl	80023bc <HAL_DAC_DMAUnderrunCallbackCh1>
 8002422:	6823      	ldr	r3, [r4, #0]
 8002424:	e7d5      	b.n	80023d2 <HAL_DAC_IRQHandler+0x12>
 8002426:	bf00      	nop

08002428 <HAL_DAC_ConfigChannel>:
 8002428:	b5f8      	push	{r3, r4, r5, r6, r7, lr}
 800242a:	7943      	ldrb	r3, [r0, #5]
 800242c:	2b01      	cmp	r3, #1
 800242e:	460e      	mov	r6, r1
 8002430:	6809      	ldr	r1, [r1, #0]
 8002432:	f000 8085 	beq.w	8002540 <HAL_DAC_ConfigChannel+0x118>
 8002436:	2301      	movs	r3, #1
 8002438:	7143      	strb	r3, [r0, #5]
 800243a:	2904      	cmp	r1, #4
 800243c:	f04f 0302 	mov.w	r3, #2
 8002440:	4605      	mov	r5, r0
 8002442:	4614      	mov	r4, r2
 8002444:	7103      	strb	r3, [r0, #4]
 8002446:	d038      	beq.n	80024ba <HAL_DAC_ConfigChannel+0x92>
 8002448:	6800      	ldr	r0, [r0, #0]
 800244a:	f002 0210 	and.w	r2, r2, #16
 800244e:	6933      	ldr	r3, [r6, #16]
 8002450:	2b01      	cmp	r3, #1
 8002452:	d108      	bne.n	8002466 <HAL_DAC_ConfigChannel+0x3e>
 8002454:	6b84      	ldr	r4, [r0, #56]	; 0x38
 8002456:	6973      	ldr	r3, [r6, #20]
 8002458:	271f      	movs	r7, #31
 800245a:	4097      	lsls	r7, r2
 800245c:	4093      	lsls	r3, r2
 800245e:	ea24 0407 	bic.w	r4, r4, r7
 8002462:	4323      	orrs	r3, r4
 8002464:	6383      	str	r3, [r0, #56]	; 0x38
 8002466:	e9d6 3402 	ldrd	r3, r4, [r6, #8]
 800246a:	4323      	orrs	r3, r4
 800246c:	430b      	orrs	r3, r1
 800246e:	6bc4      	ldr	r4, [r0, #60]	; 0x3c
 8002470:	6871      	ldr	r1, [r6, #4]
 8002472:	2607      	movs	r6, #7
 8002474:	4096      	lsls	r6, r2
 8002476:	ea24 0406 	bic.w	r4, r4, r6
 800247a:	4093      	lsls	r3, r2
 800247c:	4323      	orrs	r3, r4
 800247e:	63c3      	str	r3, [r0, #60]	; 0x3c
 8002480:	6803      	ldr	r3, [r0, #0]
 8002482:	f44f 4480 	mov.w	r4, #16384	; 0x4000
 8002486:	4094      	lsls	r4, r2
 8002488:	ea23 0304 	bic.w	r3, r3, r4
 800248c:	6003      	str	r3, [r0, #0]
 800248e:	6803      	ldr	r3, [r0, #0]
 8002490:	f640 74fc 	movw	r4, #4092	; 0xffc
 8002494:	4094      	lsls	r4, r2
 8002496:	4091      	lsls	r1, r2
 8002498:	ea23 0304 	bic.w	r3, r3, r4
 800249c:	430b      	orrs	r3, r1
 800249e:	6003      	str	r3, [r0, #0]
 80024a0:	6803      	ldr	r3, [r0, #0]
 80024a2:	21c0      	movs	r1, #192	; 0xc0
 80024a4:	fa01 f202 	lsl.w	r2, r1, r2
 80024a8:	ea23 0302 	bic.w	r3, r3, r2
 80024ac:	2100      	movs	r1, #0
 80024ae:	2201      	movs	r2, #1
 80024b0:	6003      	str	r3, [r0, #0]
 80024b2:	712a      	strb	r2, [r5, #4]
 80024b4:	7169      	strb	r1, [r5, #5]
 80024b6:	4608      	mov	r0, r1
 80024b8:	bdf8      	pop	{r3, r4, r5, r6, r7, pc}
 80024ba:	f7ff fe93 	bl	80021e4 <HAL_GetTick>
 80024be:	682b      	ldr	r3, [r5, #0]
 80024c0:	4607      	mov	r7, r0
 80024c2:	6b5b      	ldr	r3, [r3, #52]	; 0x34
 80024c4:	b154      	cbz	r4, 80024dc <HAL_DAC_ConfigChannel+0xb4>
 80024c6:	e01c      	b.n	8002502 <HAL_DAC_ConfigChannel+0xda>
 80024c8:	f7ff fe8c 	bl	80021e4 <HAL_GetTick>
 80024cc:	1bc3      	subs	r3, r0, r7
 80024ce:	2b01      	cmp	r3, #1
 80024d0:	682b      	ldr	r3, [r5, #0]
 80024d2:	d902      	bls.n	80024da <HAL_DAC_ConfigChannel+0xb2>
 80024d4:	6b5a      	ldr	r2, [r3, #52]	; 0x34
 80024d6:	0412      	lsls	r2, r2, #16
 80024d8:	d434      	bmi.n	8002544 <HAL_DAC_ConfigChannel+0x11c>
 80024da:	6b5b      	ldr	r3, [r3, #52]	; 0x34
 80024dc:	041b      	lsls	r3, r3, #16
 80024de:	d4f3      	bmi.n	80024c8 <HAL_DAC_ConfigChannel+0xa0>
 80024e0:	2001      	movs	r0, #1
 80024e2:	f7ff fe85 	bl	80021f0 <HAL_Delay>
 80024e6:	6828      	ldr	r0, [r5, #0]
 80024e8:	69b3      	ldr	r3, [r6, #24]
 80024ea:	6403      	str	r3, [r0, #64]	; 0x40
 80024ec:	e011      	b.n	8002512 <HAL_DAC_ConfigChannel+0xea>
 80024ee:	f7ff fe79 	bl	80021e4 <HAL_GetTick>
 80024f2:	1bc3      	subs	r3, r0, r7
 80024f4:	2b01      	cmp	r3, #1
 80024f6:	682b      	ldr	r3, [r5, #0]
 80024f8:	d902      	bls.n	8002500 <HAL_DAC_ConfigChannel+0xd8>
 80024fa:	6b5a      	ldr	r2, [r3, #52]	; 0x34
 80024fc:	2a00      	cmp	r2, #0
 80024fe:	db21      	blt.n	8002544 <HAL_DAC_ConfigChannel+0x11c>
 8002500:	6b5b      	ldr	r3, [r3, #52]	; 0x34
 8002502:	2b00      	cmp	r3, #0
 8002504:	dbf3      	blt.n	80024ee <HAL_DAC_ConfigChannel+0xc6>
 8002506:	2001      	movs	r0, #1
 8002508:	f7ff fe72 	bl	80021f0 <HAL_Delay>
 800250c:	6828      	ldr	r0, [r5, #0]
 800250e:	69b3      	ldr	r3, [r6, #24]
 8002510:	6443      	str	r3, [r0, #68]	; 0x44
 8002512:	f004 0210 	and.w	r2, r4, #16
 8002516:	6c83      	ldr	r3, [r0, #72]	; 0x48
 8002518:	69f1      	ldr	r1, [r6, #28]
 800251a:	f240 34ff 	movw	r4, #1023	; 0x3ff
 800251e:	4094      	lsls	r4, r2
 8002520:	4091      	lsls	r1, r2
 8002522:	ea23 0304 	bic.w	r3, r3, r4
 8002526:	430b      	orrs	r3, r1
 8002528:	6483      	str	r3, [r0, #72]	; 0x48
 800252a:	6cc3      	ldr	r3, [r0, #76]	; 0x4c
 800252c:	6a31      	ldr	r1, [r6, #32]
 800252e:	24ff      	movs	r4, #255	; 0xff
 8002530:	4094      	lsls	r4, r2
 8002532:	4091      	lsls	r1, r2
 8002534:	ea23 0304 	bic.w	r3, r3, r4
 8002538:	430b      	orrs	r3, r1
 800253a:	64c3      	str	r3, [r0, #76]	; 0x4c
 800253c:	6831      	ldr	r1, [r6, #0]
 800253e:	e786      	b.n	800244e <HAL_DAC_ConfigChannel+0x26>
 8002540:	2002      	movs	r0, #2
 8002542:	bdf8      	pop	{r3, r4, r5, r6, r7, pc}
 8002544:	692b      	ldr	r3, [r5, #16]
 8002546:	2203      	movs	r2, #3
 8002548:	f043 0308 	orr.w	r3, r3, #8
 800254c:	612b      	str	r3, [r5, #16]
 800254e:	712a      	strb	r2, [r5, #4]
 8002550:	4610      	mov	r0, r2
 8002552:	bdf8      	pop	{r3, r4, r5, r6, r7, pc}

08002554 <HAL_DACEx_DMAUnderrunCallbackCh2>:
 8002554:	4770      	bx	lr
 8002556:	bf00      	nop

08002558 <HAL_DMA_Abort>:
 8002558:	f890 2025 	ldrb.w	r2, [r0, #37]	; 0x25
 800255c:	2a02      	cmp	r2, #2
 800255e:	4603      	mov	r3, r0
 8002560:	d006      	beq.n	8002570 <HAL_DMA_Abort+0x18>
 8002562:	2204      	movs	r2, #4
 8002564:	63c2      	str	r2, [r0, #60]	; 0x3c
 8002566:	2200      	movs	r2, #0
 8002568:	2001      	movs	r0, #1
 800256a:	f883 2024 	strb.w	r2, [r3, #36]	; 0x24
 800256e:	4770      	bx	lr
 8002570:	6801      	ldr	r1, [r0, #0]
 8002572:	6c42      	ldr	r2, [r0, #68]	; 0x44
 8002574:	6808      	ldr	r0, [r1, #0]
 8002576:	f020 000e 	bic.w	r0, r0, #14
 800257a:	6008      	str	r0, [r1, #0]
 800257c:	6808      	ldr	r0, [r1, #0]
 800257e:	f020 0001 	bic.w	r0, r0, #1
 8002582:	6008      	str	r0, [r1, #0]
 8002584:	f04f 0c01 	mov.w	ip, #1
 8002588:	6c19      	ldr	r1, [r3, #64]	; 0x40
 800258a:	f002 021c 	and.w	r2, r2, #28
 800258e:	fa0c f202 	lsl.w	r2, ip, r2
 8002592:	604a      	str	r2, [r1, #4]
 8002594:	2200      	movs	r2, #0
 8002596:	2000      	movs	r0, #0
 8002598:	f883 c025 	strb.w	ip, [r3, #37]	; 0x25
 800259c:	f883 2024 	strb.w	r2, [r3, #36]	; 0x24
 80025a0:	4770      	bx	lr
 80025a2:	bf00      	nop

080025a4 <HAL_DMA_Abort_IT>:
 80025a4:	f890 2025 	ldrb.w	r2, [r0, #37]	; 0x25
 80025a8:	2a02      	cmp	r2, #2
 80025aa:	d003      	beq.n	80025b4 <HAL_DMA_Abort_IT+0x10>
 80025ac:	2204      	movs	r2, #4
 80025ae:	63c2      	str	r2, [r0, #60]	; 0x3c
 80025b0:	2001      	movs	r0, #1
 80025b2:	4770      	bx	lr
 80025b4:	6801      	ldr	r1, [r0, #0]
 80025b6:	6c42      	ldr	r2, [r0, #68]	; 0x44
 80025b8:	b510      	push	{r4, lr}
 80025ba:	680c      	ldr	r4, [r1, #0]
 80025bc:	f024 040e 	bic.w	r4, r4, #14
 80025c0:	600c      	str	r4, [r1, #0]
 80025c2:	680c      	ldr	r4, [r1, #0]
 80025c4:	f024 0401 	bic.w	r4, r4, #1
 80025c8:	600c      	str	r4, [r1, #0]
 80025ca:	f002 021c 	and.w	r2, r2, #28
 80025ce:	6c04      	ldr	r4, [r0, #64]	; 0x40
 80025d0:	2101      	movs	r1, #1
 80025d2:	fa01 f202 	lsl.w	r2, r1, r2
 80025d6:	6062      	str	r2, [r4, #4]
 80025d8:	6b82      	ldr	r2, [r0, #56]	; 0x38
 80025da:	f880 1025 	strb.w	r1, [r0, #37]	; 0x25
 80025de:	2400      	movs	r4, #0
 80025e0:	f880 4024 	strb.w	r4, [r0, #36]	; 0x24
 80025e4:	b112      	cbz	r2, 80025ec <HAL_DMA_Abort_IT+0x48>
 80025e6:	4790      	blx	r2
 80025e8:	4620      	mov	r0, r4
 80025ea:	bd10      	pop	{r4, pc}
 80025ec:	4610      	mov	r0, r2
 80025ee:	bd10      	pop	{r4, pc}

080025f0 <HAL_GPIO_Init>:
 80025f0:	e92d 4ff0 	stmdb	sp!, {r4, r5, r6, r7, r8, r9, sl, fp, lr}
 80025f4:	680c      	ldr	r4, [r1, #0]
 80025f6:	b085      	sub	sp, #20
 80025f8:	2c00      	cmp	r4, #0
 80025fa:	f000 808e 	beq.w	800271a <HAL_GPIO_Init+0x12a>
 80025fe:	f04f 0c00 	mov.w	ip, #0
 8002602:	f8df b1ec 	ldr.w	fp, [pc, #492]	; 80027f0 <HAL_GPIO_Init+0x200>
 8002606:	4663      	mov	r3, ip
 8002608:	f04f 0a01 	mov.w	sl, #1
 800260c:	4688      	mov	r8, r1
 800260e:	fa0a f603 	lsl.w	r6, sl, r3
 8002612:	ea16 0904 	ands.w	r9, r6, r4
 8002616:	d079      	beq.n	800270c <HAL_GPIO_Init+0x11c>
 8002618:	f8d8 1004 	ldr.w	r1, [r8, #4]
 800261c:	f001 0203 	and.w	r2, r1, #3
 8002620:	1e55      	subs	r5, r2, #1
 8002622:	2d01      	cmp	r5, #1
 8002624:	d97c      	bls.n	8002720 <HAL_GPIO_Init+0x130>
 8002626:	2a03      	cmp	r2, #3
 8002628:	f040 80b7 	bne.w	800279a <HAL_GPIO_Init+0x1aa>
 800262c:	6ac5      	ldr	r5, [r0, #44]	; 0x2c
 800262e:	ea25 0606 	bic.w	r6, r5, r6
 8002632:	f3c1 05c0 	ubfx	r5, r1, #3, #1
 8002636:	409d      	lsls	r5, r3
 8002638:	4335      	orrs	r5, r6
 800263a:	fa02 f20c 	lsl.w	r2, r2, ip
 800263e:	62c5      	str	r5, [r0, #44]	; 0x2c
 8002640:	43d5      	mvns	r5, r2
 8002642:	6806      	ldr	r6, [r0, #0]
 8002644:	4035      	ands	r5, r6
 8002646:	432a      	orrs	r2, r5
 8002648:	f411 3f40 	tst.w	r1, #196608	; 0x30000
 800264c:	6002      	str	r2, [r0, #0]
 800264e:	d05d      	beq.n	800270c <HAL_GPIO_Init+0x11c>
 8002650:	4d60      	ldr	r5, [pc, #384]	; (80027d4 <HAL_GPIO_Init+0x1e4>)
 8002652:	6e2a      	ldr	r2, [r5, #96]	; 0x60
 8002654:	f042 0201 	orr.w	r2, r2, #1
 8002658:	662a      	str	r2, [r5, #96]	; 0x60
 800265a:	6e2a      	ldr	r2, [r5, #96]	; 0x60
 800265c:	f002 0201 	and.w	r2, r2, #1
 8002660:	9203      	str	r2, [sp, #12]
 8002662:	9a03      	ldr	r2, [sp, #12]
 8002664:	f023 0203 	bic.w	r2, r3, #3
 8002668:	f102 4280 	add.w	r2, r2, #1073741824	; 0x40000000
 800266c:	f502 3280 	add.w	r2, r2, #65536	; 0x10000
 8002670:	f003 0603 	and.w	r6, r3, #3
 8002674:	6895      	ldr	r5, [r2, #8]
 8002676:	00b6      	lsls	r6, r6, #2
 8002678:	270f      	movs	r7, #15
 800267a:	40b7      	lsls	r7, r6
 800267c:	f1b0 4f90 	cmp.w	r0, #1207959552	; 0x48000000
 8002680:	ea25 0507 	bic.w	r5, r5, r7
 8002684:	d01b      	beq.n	80026be <HAL_GPIO_Init+0xce>
 8002686:	4f54      	ldr	r7, [pc, #336]	; (80027d8 <HAL_GPIO_Init+0x1e8>)
 8002688:	42b8      	cmp	r0, r7
 800268a:	f000 8090 	beq.w	80027ae <HAL_GPIO_Init+0x1be>
 800268e:	4f53      	ldr	r7, [pc, #332]	; (80027dc <HAL_GPIO_Init+0x1ec>)
 8002690:	42b8      	cmp	r0, r7
 8002692:	f000 8090 	beq.w	80027b6 <HAL_GPIO_Init+0x1c6>
 8002696:	4f52      	ldr	r7, [pc, #328]	; (80027e0 <HAL_GPIO_Init+0x1f0>)
 8002698:	42b8      	cmp	r0, r7
 800269a:	f000 8083 	beq.w	80027a4 <HAL_GPIO_Init+0x1b4>
 800269e:	4f51      	ldr	r7, [pc, #324]	; (80027e4 <HAL_GPIO_Init+0x1f4>)
 80026a0:	42b8      	cmp	r0, r7
 80026a2:	f000 808d 	beq.w	80027c0 <HAL_GPIO_Init+0x1d0>
 80026a6:	4f50      	ldr	r7, [pc, #320]	; (80027e8 <HAL_GPIO_Init+0x1f8>)
 80026a8:	42b8      	cmp	r0, r7
 80026aa:	f000 808e 	beq.w	80027ca <HAL_GPIO_Init+0x1da>
 80026ae:	4f4f      	ldr	r7, [pc, #316]	; (80027ec <HAL_GPIO_Init+0x1fc>)
 80026b0:	42b8      	cmp	r0, r7
 80026b2:	bf0c      	ite	eq
 80026b4:	2706      	moveq	r7, #6
 80026b6:	2707      	movne	r7, #7
 80026b8:	fa07 f606 	lsl.w	r6, r7, r6
 80026bc:	4335      	orrs	r5, r6
 80026be:	6095      	str	r5, [r2, #8]
 80026c0:	f8db 2008 	ldr.w	r2, [fp, #8]
 80026c4:	ea6f 0509 	mvn.w	r5, r9
 80026c8:	02ce      	lsls	r6, r1, #11
 80026ca:	bf54      	ite	pl
 80026cc:	402a      	andpl	r2, r5
 80026ce:	ea49 0202 	orrmi.w	r2, r9, r2
 80026d2:	f8cb 2008 	str.w	r2, [fp, #8]
 80026d6:	f8db 200c 	ldr.w	r2, [fp, #12]
 80026da:	028f      	lsls	r7, r1, #10
 80026dc:	bf54      	ite	pl
 80026de:	402a      	andpl	r2, r5
 80026e0:	ea49 0202 	orrmi.w	r2, r9, r2
 80026e4:	f8cb 200c 	str.w	r2, [fp, #12]
 80026e8:	f8db 2004 	ldr.w	r2, [fp, #4]
 80026ec:	038e      	lsls	r6, r1, #14
 80026ee:	bf54      	ite	pl
 80026f0:	402a      	andpl	r2, r5
 80026f2:	ea49 0202 	orrmi.w	r2, r9, r2
 80026f6:	f8cb 2004 	str.w	r2, [fp, #4]
 80026fa:	f8db 2000 	ldr.w	r2, [fp]
 80026fe:	03c9      	lsls	r1, r1, #15
 8002700:	bf54      	ite	pl
 8002702:	402a      	andpl	r2, r5
 8002704:	ea49 0202 	orrmi.w	r2, r9, r2
 8002708:	f8cb 2000 	str.w	r2, [fp]
 800270c:	3301      	adds	r3, #1
 800270e:	fa34 f203 	lsrs.w	r2, r4, r3
 8002712:	f10c 0c02 	add.w	ip, ip, #2
 8002716:	f47f af7a 	bne.w	800260e <HAL_GPIO_Init+0x1e>
 800271a:	b005      	add	sp, #20
 800271c:	e8bd 8ff0 	ldmia.w	sp!, {r4, r5, r6, r7, r8, r9, sl, fp, pc}
 8002720:	f8d0 e008 	ldr.w	lr, [r0, #8]
 8002724:	f8d8 500c 	ldr.w	r5, [r8, #12]
 8002728:	2703      	movs	r7, #3
 800272a:	fa07 f70c 	lsl.w	r7, r7, ip
 800272e:	ea2e 0e07 	bic.w	lr, lr, r7
 8002732:	fa05 f50c 	lsl.w	r5, r5, ip
 8002736:	ea45 050e 	orr.w	r5, r5, lr
 800273a:	6085      	str	r5, [r0, #8]
 800273c:	43fd      	mvns	r5, r7
 800273e:	6847      	ldr	r7, [r0, #4]
 8002740:	ea27 0706 	bic.w	r7, r7, r6
 8002744:	f3c1 1600 	ubfx	r6, r1, #4, #1
 8002748:	409e      	lsls	r6, r3
 800274a:	433e      	orrs	r6, r7
 800274c:	6046      	str	r6, [r0, #4]
 800274e:	68c7      	ldr	r7, [r0, #12]
 8002750:	f8d8 6008 	ldr.w	r6, [r8, #8]
 8002754:	402f      	ands	r7, r5
 8002756:	fa06 f60c 	lsl.w	r6, r6, ip
 800275a:	433e      	orrs	r6, r7
 800275c:	2a02      	cmp	r2, #2
 800275e:	60c6      	str	r6, [r0, #12]
 8002760:	fa02 f20c 	lsl.w	r2, r2, ip
 8002764:	f47f af6d 	bne.w	8002642 <HAL_GPIO_Init+0x52>
 8002768:	08df      	lsrs	r7, r3, #3
 800276a:	eb00 0787 	add.w	r7, r0, r7, lsl #2
 800276e:	f003 0e07 	and.w	lr, r3, #7
 8002772:	6a3e      	ldr	r6, [r7, #32]
 8002774:	9600      	str	r6, [sp, #0]
 8002776:	f8d8 6010 	ldr.w	r6, [r8, #16]
 800277a:	ea4f 0e8e 	mov.w	lr, lr, lsl #2
 800277e:	fa06 f60e 	lsl.w	r6, r6, lr
 8002782:	9601      	str	r6, [sp, #4]
 8002784:	260f      	movs	r6, #15
 8002786:	fa06 fe0e 	lsl.w	lr, r6, lr
 800278a:	9e00      	ldr	r6, [sp, #0]
 800278c:	ea26 0e0e 	bic.w	lr, r6, lr
 8002790:	9e01      	ldr	r6, [sp, #4]
 8002792:	ea46 060e 	orr.w	r6, r6, lr
 8002796:	623e      	str	r6, [r7, #32]
 8002798:	e753      	b.n	8002642 <HAL_GPIO_Init+0x52>
 800279a:	2503      	movs	r5, #3
 800279c:	fa05 f50c 	lsl.w	r5, r5, ip
 80027a0:	43ed      	mvns	r5, r5
 80027a2:	e7d4      	b.n	800274e <HAL_GPIO_Init+0x15e>
 80027a4:	2703      	movs	r7, #3
 80027a6:	fa07 f606 	lsl.w	r6, r7, r6
 80027aa:	4335      	orrs	r5, r6
 80027ac:	e787      	b.n	80026be <HAL_GPIO_Init+0xce>
 80027ae:	fa0a f606 	lsl.w	r6, sl, r6
 80027b2:	4335      	orrs	r5, r6
 80027b4:	e783      	b.n	80026be <HAL_GPIO_Init+0xce>
 80027b6:	2702      	movs	r7, #2
 80027b8:	fa07 f606 	lsl.w	r6, r7, r6
 80027bc:	4335      	orrs	r5, r6
 80027be:	e77e      	b.n	80026be <HAL_GPIO_Init+0xce>
 80027c0:	2704      	movs	r7, #4
 80027c2:	fa07 f606 	lsl.w	r6, r7, r6
 80027c6:	4335      	orrs	r5, r6
 80027c8:	e779      	b.n	80026be <HAL_GPIO_Init+0xce>
 80027ca:	2705      	movs	r7, #5
 80027cc:	fa07 f606 	lsl.w	r6, r7, r6
 80027d0:	4335      	orrs	r5, r6
 80027d2:	e774      	b.n	80026be <HAL_GPIO_Init+0xce>
 80027d4:	40021000 	.word	0x40021000
 80027d8:	48000400 	.word	0x48000400
 80027dc:	48000800 	.word	0x48000800
 80027e0:	48000c00 	.word	0x48000c00
 80027e4:	48001000 	.word	0x48001000
 80027e8:	48001400 	.word	0x48001400
 80027ec:	48001800 	.word	0x48001800
 80027f0:	40010400 	.word	0x40010400

080027f4 <HAL_GPIO_ReadPin>:
 80027f4:	6903      	ldr	r3, [r0, #16]
 80027f6:	4219      	tst	r1, r3
 80027f8:	bf14      	ite	ne
 80027fa:	2001      	movne	r0, #1
 80027fc:	2000      	moveq	r0, #0
 80027fe:	4770      	bx	lr

08002800 <HAL_GPIO_EXTI_IRQHandler>:
 8002800:	4a04      	ldr	r2, [pc, #16]	; (8002814 <HAL_GPIO_EXTI_IRQHandler+0x14>)
 8002802:	6951      	ldr	r1, [r2, #20]
 8002804:	4201      	tst	r1, r0
 8002806:	d100      	bne.n	800280a <HAL_GPIO_EXTI_IRQHandler+0xa>
 8002808:	4770      	bx	lr
 800280a:	b508      	push	{r3, lr}
 800280c:	6150      	str	r0, [r2, #20]
 800280e:	f7fd fff5 	bl	80007fc <HAL_GPIO_EXTI_Callback>
 8002812:	bd08      	pop	{r3, pc}
 8002814:	40010400 	.word	0x40010400

08002818 <I2C_WaitOnSTOPFlagUntilTimeout>:
 8002818:	e92d 47f0 	stmdb	sp!, {r4, r5, r6, r7, r8, r9, sl, lr}
 800281c:	4606      	mov	r6, r0
 800281e:	6800      	ldr	r0, [r0, #0]
 8002820:	4690      	mov	r8, r2
 8002822:	6982      	ldr	r2, [r0, #24]
 8002824:	0694      	lsls	r4, r2, #26
 8002826:	d464      	bmi.n	80028f2 <I2C_WaitOnSTOPFlagUntilTimeout+0xda>
 8002828:	460f      	mov	r7, r1
 800282a:	4603      	mov	r3, r0
 800282c:	f04f 0910 	mov.w	r9, #16
 8002830:	6984      	ldr	r4, [r0, #24]
 8002832:	f014 0410 	ands.w	r4, r4, #16
 8002836:	d072      	beq.n	800291e <I2C_WaitOnSTOPFlagUntilTimeout+0x106>
 8002838:	2500      	movs	r5, #0
 800283a:	f8c0 901c 	str.w	r9, [r0, #28]
 800283e:	4603      	mov	r3, r0
 8002840:	4644      	mov	r4, r8
 8002842:	46aa      	mov	sl, r5
 8002844:	1c79      	adds	r1, r7, #1
 8002846:	699a      	ldr	r2, [r3, #24]
 8002848:	d16b      	bne.n	8002922 <I2C_WaitOnSTOPFlagUntilTimeout+0x10a>
 800284a:	0690      	lsls	r0, r2, #26
 800284c:	f100 8098 	bmi.w	8002980 <I2C_WaitOnSTOPFlagUntilTimeout+0x168>
 8002850:	f1ba 0f00 	cmp.w	sl, #0
 8002854:	d104      	bne.n	8002860 <I2C_WaitOnSTOPFlagUntilTimeout+0x48>
 8002856:	699c      	ldr	r4, [r3, #24]
 8002858:	06a1      	lsls	r1, r4, #26
 800285a:	d5fc      	bpl.n	8002856 <I2C_WaitOnSTOPFlagUntilTimeout+0x3e>
 800285c:	2220      	movs	r2, #32
 800285e:	61da      	str	r2, [r3, #28]
 8002860:	f045 0404 	orr.w	r4, r5, #4
 8002864:	2101      	movs	r1, #1
 8002866:	699a      	ldr	r2, [r3, #24]
 8002868:	05d0      	lsls	r0, r2, #23
 800286a:	d530      	bpl.n	80028ce <I2C_WaitOnSTOPFlagUntilTimeout+0xb6>
 800286c:	f44f 7180 	mov.w	r1, #256	; 0x100
 8002870:	0555      	lsls	r5, r2, #21
 8002872:	61d9      	str	r1, [r3, #28]
 8002874:	f044 0401 	orr.w	r4, r4, #1
 8002878:	d504      	bpl.n	8002884 <I2C_WaitOnSTOPFlagUntilTimeout+0x6c>
 800287a:	f44f 6180 	mov.w	r1, #1024	; 0x400
 800287e:	61d9      	str	r1, [r3, #28]
 8002880:	f044 0408 	orr.w	r4, r4, #8
 8002884:	0597      	lsls	r7, r2, #22
 8002886:	d504      	bpl.n	8002892 <I2C_WaitOnSTOPFlagUntilTimeout+0x7a>
 8002888:	f44f 7200 	mov.w	r2, #512	; 0x200
 800288c:	f044 0402 	orr.w	r4, r4, #2
 8002890:	61da      	str	r2, [r3, #28]
 8002892:	699a      	ldr	r2, [r3, #24]
 8002894:	0790      	lsls	r0, r2, #30
 8002896:	bf44      	itt	mi
 8002898:	2200      	movmi	r2, #0
 800289a:	629a      	strmi	r2, [r3, #40]	; 0x28
 800289c:	699a      	ldr	r2, [r3, #24]
 800289e:	07d1      	lsls	r1, r2, #31
 80028a0:	d403      	bmi.n	80028aa <I2C_WaitOnSTOPFlagUntilTimeout+0x92>
 80028a2:	699a      	ldr	r2, [r3, #24]
 80028a4:	f042 0201 	orr.w	r2, r2, #1
 80028a8:	619a      	str	r2, [r3, #24]
 80028aa:	685a      	ldr	r2, [r3, #4]
 80028ac:	4837      	ldr	r0, [pc, #220]	; (800298c <I2C_WaitOnSTOPFlagUntilTimeout+0x174>)
 80028ae:	4002      	ands	r2, r0
 80028b0:	605a      	str	r2, [r3, #4]
 80028b2:	6c73      	ldr	r3, [r6, #68]	; 0x44
 80028b4:	2100      	movs	r1, #0
 80028b6:	2220      	movs	r2, #32
 80028b8:	4323      	orrs	r3, r4
 80028ba:	6473      	str	r3, [r6, #68]	; 0x44
 80028bc:	f886 1040 	strb.w	r1, [r6, #64]	; 0x40
 80028c0:	f886 2041 	strb.w	r2, [r6, #65]	; 0x41
 80028c4:	f886 1042 	strb.w	r1, [r6, #66]	; 0x42
 80028c8:	2001      	movs	r0, #1
 80028ca:	e8bd 87f0 	ldmia.w	sp!, {r4, r5, r6, r7, r8, r9, sl, pc}
 80028ce:	0550      	lsls	r0, r2, #21
 80028d0:	d4d3      	bmi.n	800287a <I2C_WaitOnSTOPFlagUntilTimeout+0x62>
 80028d2:	0595      	lsls	r5, r2, #22
 80028d4:	d4d8      	bmi.n	8002888 <I2C_WaitOnSTOPFlagUntilTimeout+0x70>
 80028d6:	2900      	cmp	r1, #0
 80028d8:	d1db      	bne.n	8002892 <I2C_WaitOnSTOPFlagUntilTimeout+0x7a>
 80028da:	f7ff fc83 	bl	80021e4 <HAL_GetTick>
 80028de:	eba0 0008 	sub.w	r0, r0, r8
 80028e2:	42b8      	cmp	r0, r7
 80028e4:	d808      	bhi.n	80028f8 <I2C_WaitOnSTOPFlagUntilTimeout+0xe0>
 80028e6:	b13f      	cbz	r7, 80028f8 <I2C_WaitOnSTOPFlagUntilTimeout+0xe0>
 80028e8:	6833      	ldr	r3, [r6, #0]
 80028ea:	4618      	mov	r0, r3
 80028ec:	6982      	ldr	r2, [r0, #24]
 80028ee:	0692      	lsls	r2, r2, #26
 80028f0:	d59e      	bpl.n	8002830 <I2C_WaitOnSTOPFlagUntilTimeout+0x18>
 80028f2:	2000      	movs	r0, #0
 80028f4:	e8bd 87f0 	ldmia.w	sp!, {r4, r5, r6, r7, r8, r9, sl, pc}
 80028f8:	6830      	ldr	r0, [r6, #0]
 80028fa:	6982      	ldr	r2, [r0, #24]
 80028fc:	f012 0220 	ands.w	r2, r2, #32
 8002900:	4603      	mov	r3, r0
 8002902:	d1f3      	bne.n	80028ec <I2C_WaitOnSTOPFlagUntilTimeout+0xd4>
 8002904:	6c73      	ldr	r3, [r6, #68]	; 0x44
 8002906:	f886 2040 	strb.w	r2, [r6, #64]	; 0x40
 800290a:	2120      	movs	r1, #32
 800290c:	430b      	orrs	r3, r1
 800290e:	6473      	str	r3, [r6, #68]	; 0x44
 8002910:	f886 1041 	strb.w	r1, [r6, #65]	; 0x41
 8002914:	f886 2042 	strb.w	r2, [r6, #66]	; 0x42
 8002918:	2001      	movs	r0, #1
 800291a:	e8bd 87f0 	ldmia.w	sp!, {r4, r5, r6, r7, r8, r9, sl, pc}
 800291e:	4621      	mov	r1, r4
 8002920:	e7a1      	b.n	8002866 <I2C_WaitOnSTOPFlagUntilTimeout+0x4e>
 8002922:	0692      	lsls	r2, r2, #26
 8002924:	d42c      	bmi.n	8002980 <I2C_WaitOnSTOPFlagUntilTimeout+0x168>
 8002926:	f1ba 0f00 	cmp.w	sl, #0
 800292a:	d199      	bne.n	8002860 <I2C_WaitOnSTOPFlagUntilTimeout+0x48>
 800292c:	f7ff fc5a 	bl	80021e4 <HAL_GetTick>
 8002930:	1b00      	subs	r0, r0, r4
 8002932:	4287      	cmp	r7, r0
 8002934:	6833      	ldr	r3, [r6, #0]
 8002936:	d301      	bcc.n	800293c <I2C_WaitOnSTOPFlagUntilTimeout+0x124>
 8002938:	2f00      	cmp	r7, #0
 800293a:	d183      	bne.n	8002844 <I2C_WaitOnSTOPFlagUntilTimeout+0x2c>
 800293c:	6858      	ldr	r0, [r3, #4]
 800293e:	f896 2042 	ldrb.w	r2, [r6, #66]	; 0x42
 8002942:	6999      	ldr	r1, [r3, #24]
 8002944:	0409      	lsls	r1, r1, #16
 8002946:	b2d2      	uxtb	r2, r2
 8002948:	d501      	bpl.n	800294e <I2C_WaitOnSTOPFlagUntilTimeout+0x136>
 800294a:	0441      	lsls	r1, r0, #17
 800294c:	d50d      	bpl.n	800296a <I2C_WaitOnSTOPFlagUntilTimeout+0x152>
 800294e:	699a      	ldr	r2, [r3, #24]
 8002950:	0690      	lsls	r0, r2, #26
 8002952:	f53f af77 	bmi.w	8002844 <I2C_WaitOnSTOPFlagUntilTimeout+0x2c>
 8002956:	f7ff fc45 	bl	80021e4 <HAL_GetTick>
 800295a:	1b00      	subs	r0, r0, r4
 800295c:	2819      	cmp	r0, #25
 800295e:	6833      	ldr	r3, [r6, #0]
 8002960:	d9f5      	bls.n	800294e <I2C_WaitOnSTOPFlagUntilTimeout+0x136>
 8002962:	2520      	movs	r5, #32
 8002964:	f04f 0a01 	mov.w	sl, #1
 8002968:	e76c      	b.n	8002844 <I2C_WaitOnSTOPFlagUntilTimeout+0x2c>
 800296a:	2a20      	cmp	r2, #32
 800296c:	d0ef      	beq.n	800294e <I2C_WaitOnSTOPFlagUntilTimeout+0x136>
 800296e:	685a      	ldr	r2, [r3, #4]
 8002970:	f442 4280 	orr.w	r2, r2, #16384	; 0x4000
 8002974:	605a      	str	r2, [r3, #4]
 8002976:	f7ff fc35 	bl	80021e4 <HAL_GetTick>
 800297a:	6833      	ldr	r3, [r6, #0]
 800297c:	4604      	mov	r4, r0
 800297e:	e7e6      	b.n	800294e <I2C_WaitOnSTOPFlagUntilTimeout+0x136>
 8002980:	f1ba 0f00 	cmp.w	sl, #0
 8002984:	f43f af6a 	beq.w	800285c <I2C_WaitOnSTOPFlagUntilTimeout+0x44>
 8002988:	e76a      	b.n	8002860 <I2C_WaitOnSTOPFlagUntilTimeout+0x48>
 800298a:	bf00      	nop
 800298c:	fe00e800 	.word	0xfe00e800

08002990 <HAL_I2C_Init>:
 8002990:	2800      	cmp	r0, #0
 8002992:	d054      	beq.n	8002a3e <HAL_I2C_Init+0xae>
 8002994:	b510      	push	{r4, lr}
 8002996:	f890 3041 	ldrb.w	r3, [r0, #65]	; 0x41
 800299a:	4604      	mov	r4, r0
 800299c:	f003 02ff 	and.w	r2, r3, #255	; 0xff
 80029a0:	2b00      	cmp	r3, #0
 80029a2:	d047      	beq.n	8002a34 <HAL_I2C_Init+0xa4>
 80029a4:	6823      	ldr	r3, [r4, #0]
 80029a6:	2224      	movs	r2, #36	; 0x24
 80029a8:	f884 2041 	strb.w	r2, [r4, #65]	; 0x41
 80029ac:	6819      	ldr	r1, [r3, #0]
 80029ae:	6862      	ldr	r2, [r4, #4]
 80029b0:	f021 0101 	bic.w	r1, r1, #1
 80029b4:	f022 6270 	bic.w	r2, r2, #251658240	; 0xf000000
 80029b8:	6019      	str	r1, [r3, #0]
 80029ba:	611a      	str	r2, [r3, #16]
 80029bc:	689a      	ldr	r2, [r3, #8]
 80029be:	68e1      	ldr	r1, [r4, #12]
 80029c0:	f422 4200 	bic.w	r2, r2, #32768	; 0x8000
 80029c4:	2901      	cmp	r1, #1
 80029c6:	609a      	str	r2, [r3, #8]
 80029c8:	68a2      	ldr	r2, [r4, #8]
 80029ca:	d009      	beq.n	80029e0 <HAL_I2C_Init+0x50>
 80029cc:	f442 4204 	orr.w	r2, r2, #33792	; 0x8400
 80029d0:	2902      	cmp	r1, #2
 80029d2:	609a      	str	r2, [r3, #8]
 80029d4:	d107      	bne.n	80029e6 <HAL_I2C_Init+0x56>
 80029d6:	685a      	ldr	r2, [r3, #4]
 80029d8:	f442 6200 	orr.w	r2, r2, #2048	; 0x800
 80029dc:	605a      	str	r2, [r3, #4]
 80029de:	e006      	b.n	80029ee <HAL_I2C_Init+0x5e>
 80029e0:	f442 4200 	orr.w	r2, r2, #32768	; 0x8000
 80029e4:	609a      	str	r2, [r3, #8]
 80029e6:	685a      	ldr	r2, [r3, #4]
 80029e8:	f422 6200 	bic.w	r2, r2, #2048	; 0x800
 80029ec:	605a      	str	r2, [r3, #4]
 80029ee:	6859      	ldr	r1, [r3, #4]
 80029f0:	6922      	ldr	r2, [r4, #16]
 80029f2:	f041 7100 	orr.w	r1, r1, #33554432	; 0x2000000
 80029f6:	f441 4100 	orr.w	r1, r1, #32768	; 0x8000
 80029fa:	6059      	str	r1, [r3, #4]
 80029fc:	6961      	ldr	r1, [r4, #20]
 80029fe:	68d8      	ldr	r0, [r3, #12]
 8002a00:	430a      	orrs	r2, r1
 8002a02:	69a1      	ldr	r1, [r4, #24]
 8002a04:	f420 4000 	bic.w	r0, r0, #32768	; 0x8000
 8002a08:	ea42 2201 	orr.w	r2, r2, r1, lsl #8
 8002a0c:	69e1      	ldr	r1, [r4, #28]
 8002a0e:	60d8      	str	r0, [r3, #12]
 8002a10:	6a20      	ldr	r0, [r4, #32]
 8002a12:	60da      	str	r2, [r3, #12]
 8002a14:	4301      	orrs	r1, r0
 8002a16:	6019      	str	r1, [r3, #0]
 8002a18:	6819      	ldr	r1, [r3, #0]
 8002a1a:	f041 0101 	orr.w	r1, r1, #1
 8002a1e:	6019      	str	r1, [r3, #0]
 8002a20:	2200      	movs	r2, #0
 8002a22:	2320      	movs	r3, #32
 8002a24:	6462      	str	r2, [r4, #68]	; 0x44
 8002a26:	f884 3041 	strb.w	r3, [r4, #65]	; 0x41
 8002a2a:	6322      	str	r2, [r4, #48]	; 0x30
 8002a2c:	f884 2042 	strb.w	r2, [r4, #66]	; 0x42
 8002a30:	4610      	mov	r0, r2
 8002a32:	bd10      	pop	{r4, pc}
 8002a34:	f880 2040 	strb.w	r2, [r0, #64]	; 0x40
 8002a38:	f7fe fcc8 	bl	80013cc <HAL_I2C_MspInit>
 8002a3c:	e7b2      	b.n	80029a4 <HAL_I2C_Init+0x14>
 8002a3e:	2001      	movs	r0, #1
 8002a40:	4770      	bx	lr
 8002a42:	bf00      	nop

08002a44 <HAL_I2C_Master_Transmit>:
 8002a44:	e92d 4ff8 	stmdb	sp!, {r3, r4, r5, r6, r7, r8, r9, sl, fp, lr}
 8002a48:	461f      	mov	r7, r3
 8002a4a:	f890 3041 	ldrb.w	r3, [r0, #65]	; 0x41
 8002a4e:	9e0a      	ldr	r6, [sp, #40]	; 0x28
 8002a50:	2b20      	cmp	r3, #32
 8002a52:	d129      	bne.n	8002aa8 <HAL_I2C_Master_Transmit+0x64>
 8002a54:	f890 3040 	ldrb.w	r3, [r0, #64]	; 0x40
 8002a58:	2b01      	cmp	r3, #1
 8002a5a:	4604      	mov	r4, r0
 8002a5c:	d024      	beq.n	8002aa8 <HAL_I2C_Master_Transmit+0x64>
 8002a5e:	2301      	movs	r3, #1
 8002a60:	f880 3040 	strb.w	r3, [r0, #64]	; 0x40
 8002a64:	468b      	mov	fp, r1
 8002a66:	4615      	mov	r5, r2
 8002a68:	f7ff fbbc 	bl	80021e4 <HAL_GetTick>
 8002a6c:	4681      	mov	r9, r0
 8002a6e:	6820      	ldr	r0, [r4, #0]
 8002a70:	6983      	ldr	r3, [r0, #24]
 8002a72:	041b      	lsls	r3, r3, #16
 8002a74:	d51b      	bpl.n	8002aae <HAL_I2C_Master_Transmit+0x6a>
 8002a76:	f7ff fbb5 	bl	80021e4 <HAL_GetTick>
 8002a7a:	eba0 0009 	sub.w	r0, r0, r9
 8002a7e:	2819      	cmp	r0, #25
 8002a80:	6820      	ldr	r0, [r4, #0]
 8002a82:	d9f5      	bls.n	8002a70 <HAL_I2C_Master_Transmit+0x2c>
 8002a84:	6983      	ldr	r3, [r0, #24]
 8002a86:	0419      	lsls	r1, r3, #16
 8002a88:	d5f2      	bpl.n	8002a70 <HAL_I2C_Master_Transmit+0x2c>
 8002a8a:	6c63      	ldr	r3, [r4, #68]	; 0x44
 8002a8c:	2200      	movs	r2, #0
 8002a8e:	f043 0320 	orr.w	r3, r3, #32
 8002a92:	2120      	movs	r1, #32
 8002a94:	6463      	str	r3, [r4, #68]	; 0x44
 8002a96:	f884 2040 	strb.w	r2, [r4, #64]	; 0x40
 8002a9a:	f884 1041 	strb.w	r1, [r4, #65]	; 0x41
 8002a9e:	f884 2042 	strb.w	r2, [r4, #66]	; 0x42
 8002aa2:	2001      	movs	r0, #1
 8002aa4:	e8bd 8ff8 	ldmia.w	sp!, {r3, r4, r5, r6, r7, r8, r9, sl, fp, pc}
 8002aa8:	2002      	movs	r0, #2
 8002aaa:	e8bd 8ff8 	ldmia.w	sp!, {r3, r4, r5, r6, r7, r8, r9, sl, fp, pc}
 8002aae:	2221      	movs	r2, #33	; 0x21
 8002ab0:	f884 2041 	strb.w	r2, [r4, #65]	; 0x41
 8002ab4:	2300      	movs	r3, #0
 8002ab6:	2210      	movs	r2, #16
 8002ab8:	f884 2042 	strb.w	r2, [r4, #66]	; 0x42
 8002abc:	6463      	str	r3, [r4, #68]	; 0x44
 8002abe:	8567      	strh	r7, [r4, #42]	; 0x2a
 8002ac0:	6363      	str	r3, [r4, #52]	; 0x34
 8002ac2:	8d63      	ldrh	r3, [r4, #42]	; 0x2a
 8002ac4:	6265      	str	r5, [r4, #36]	; 0x24
 8002ac6:	b29b      	uxth	r3, r3
 8002ac8:	2bff      	cmp	r3, #255	; 0xff
 8002aca:	d86d      	bhi.n	8002ba8 <HAL_I2C_Master_Transmit+0x164>
 8002acc:	8d63      	ldrh	r3, [r4, #42]	; 0x2a
 8002ace:	b29b      	uxth	r3, r3
 8002ad0:	8523      	strh	r3, [r4, #40]	; 0x28
 8002ad2:	2b00      	cmp	r3, #0
 8002ad4:	f040 8142 	bne.w	8002d5c <HAL_I2C_Master_Transmit+0x318>
 8002ad8:	6842      	ldr	r2, [r0, #4]
 8002ada:	4ba4      	ldr	r3, [pc, #656]	; (8002d6c <HAL_I2C_Master_Transmit+0x328>)
 8002adc:	401a      	ands	r2, r3
 8002ade:	f3cb 0309 	ubfx	r3, fp, #0, #10
 8002ae2:	4313      	orrs	r3, r2
 8002ae4:	f043 7300 	orr.w	r3, r3, #33554432	; 0x2000000
 8002ae8:	f443 5300 	orr.w	r3, r3, #8192	; 0x2000
 8002aec:	6043      	str	r3, [r0, #4]
 8002aee:	f3cb 0b09 	ubfx	fp, fp, #0, #10
 8002af2:	8d63      	ldrh	r3, [r4, #42]	; 0x2a
 8002af4:	b29b      	uxth	r3, r3
 8002af6:	2b00      	cmp	r3, #0
 8002af8:	f000 80e0 	beq.w	8002cbc <HAL_I2C_Master_Transmit+0x278>
 8002afc:	f04f 0a20 	mov.w	sl, #32
 8002b00:	6985      	ldr	r5, [r0, #24]
 8002b02:	f015 0502 	ands.w	r5, r5, #2
 8002b06:	f040 80c3 	bne.w	8002c90 <HAL_I2C_Master_Transmit+0x24c>
 8002b0a:	6983      	ldr	r3, [r0, #24]
 8002b0c:	f013 0310 	ands.w	r3, r3, #16
 8002b10:	f000 808c 	beq.w	8002c2c <HAL_I2C_Master_Transmit+0x1e8>
 8002b14:	2310      	movs	r3, #16
 8002b16:	61c3      	str	r3, [r0, #28]
 8002b18:	464f      	mov	r7, r9
 8002b1a:	46a8      	mov	r8, r5
 8002b1c:	1c72      	adds	r2, r6, #1
 8002b1e:	6983      	ldr	r3, [r0, #24]
 8002b20:	f040 8086 	bne.w	8002c30 <HAL_I2C_Master_Transmit+0x1ec>
 8002b24:	0699      	lsls	r1, r3, #26
 8002b26:	f100 8103 	bmi.w	8002d30 <HAL_I2C_Master_Transmit+0x2ec>
 8002b2a:	f1b8 0f00 	cmp.w	r8, #0
 8002b2e:	d104      	bne.n	8002b3a <HAL_I2C_Master_Transmit+0xf6>
 8002b30:	6983      	ldr	r3, [r0, #24]
 8002b32:	069a      	lsls	r2, r3, #26
 8002b34:	d5fc      	bpl.n	8002b30 <HAL_I2C_Master_Transmit+0xec>
 8002b36:	f8c0 a01c 	str.w	sl, [r0, #28]
 8002b3a:	f045 0304 	orr.w	r3, r5, #4
 8002b3e:	2101      	movs	r1, #1
 8002b40:	6982      	ldr	r2, [r0, #24]
 8002b42:	05d7      	lsls	r7, r2, #23
 8002b44:	d54f      	bpl.n	8002be6 <HAL_I2C_Master_Transmit+0x1a2>
 8002b46:	f44f 7180 	mov.w	r1, #256	; 0x100
 8002b4a:	0556      	lsls	r6, r2, #21
 8002b4c:	61c1      	str	r1, [r0, #28]
 8002b4e:	f043 0301 	orr.w	r3, r3, #1
 8002b52:	d504      	bpl.n	8002b5e <HAL_I2C_Master_Transmit+0x11a>
 8002b54:	f44f 6180 	mov.w	r1, #1024	; 0x400
 8002b58:	61c1      	str	r1, [r0, #28]
 8002b5a:	f043 0308 	orr.w	r3, r3, #8
 8002b5e:	0591      	lsls	r1, r2, #22
 8002b60:	d504      	bpl.n	8002b6c <HAL_I2C_Master_Transmit+0x128>
 8002b62:	f44f 7200 	mov.w	r2, #512	; 0x200
 8002b66:	f043 0302 	orr.w	r3, r3, #2
 8002b6a:	61c2      	str	r2, [r0, #28]
 8002b6c:	6982      	ldr	r2, [r0, #24]
 8002b6e:	0797      	lsls	r7, r2, #30
 8002b70:	bf44      	itt	mi
 8002b72:	2200      	movmi	r2, #0
 8002b74:	6282      	strmi	r2, [r0, #40]	; 0x28
 8002b76:	6982      	ldr	r2, [r0, #24]
 8002b78:	07d6      	lsls	r6, r2, #31
 8002b7a:	d403      	bmi.n	8002b84 <HAL_I2C_Master_Transmit+0x140>
 8002b7c:	6982      	ldr	r2, [r0, #24]
 8002b7e:	f042 0201 	orr.w	r2, r2, #1
 8002b82:	6182      	str	r2, [r0, #24]
 8002b84:	6842      	ldr	r2, [r0, #4]
 8002b86:	4d7a      	ldr	r5, [pc, #488]	; (8002d70 <HAL_I2C_Master_Transmit+0x32c>)
 8002b88:	402a      	ands	r2, r5
 8002b8a:	6042      	str	r2, [r0, #4]
 8002b8c:	6c62      	ldr	r2, [r4, #68]	; 0x44
 8002b8e:	2100      	movs	r1, #0
 8002b90:	2020      	movs	r0, #32
 8002b92:	4313      	orrs	r3, r2
 8002b94:	6463      	str	r3, [r4, #68]	; 0x44
 8002b96:	f884 1040 	strb.w	r1, [r4, #64]	; 0x40
 8002b9a:	f884 0041 	strb.w	r0, [r4, #65]	; 0x41
 8002b9e:	f884 1042 	strb.w	r1, [r4, #66]	; 0x42
 8002ba2:	2001      	movs	r0, #1
 8002ba4:	e8bd 8ff8 	ldmia.w	sp!, {r3, r4, r5, r6, r7, r8, r9, sl, fp, pc}
 8002ba8:	23ff      	movs	r3, #255	; 0xff
 8002baa:	8523      	strh	r3, [r4, #40]	; 0x28
 8002bac:	f44f 027f 	mov.w	r2, #16711680	; 0xff0000
 8002bb0:	23fe      	movs	r3, #254	; 0xfe
 8002bb2:	f04f 7180 	mov.w	r1, #16777216	; 0x1000000
 8002bb6:	f815 cb01 	ldrb.w	ip, [r5], #1
 8002bba:	f8c0 c028 	str.w	ip, [r0, #40]	; 0x28
 8002bbe:	8523      	strh	r3, [r4, #40]	; 0x28
 8002bc0:	8d63      	ldrh	r3, [r4, #42]	; 0x2a
 8002bc2:	6265      	str	r5, [r4, #36]	; 0x24
 8002bc4:	3b01      	subs	r3, #1
 8002bc6:	b29b      	uxth	r3, r3
 8002bc8:	8563      	strh	r3, [r4, #42]	; 0x2a
 8002bca:	6845      	ldr	r5, [r0, #4]
 8002bcc:	4f67      	ldr	r7, [pc, #412]	; (8002d6c <HAL_I2C_Master_Transmit+0x328>)
 8002bce:	f3cb 0309 	ubfx	r3, fp, #0, #10
 8002bd2:	403d      	ands	r5, r7
 8002bd4:	4313      	orrs	r3, r2
 8002bd6:	432b      	orrs	r3, r5
 8002bd8:	430b      	orrs	r3, r1
 8002bda:	f443 5300 	orr.w	r3, r3, #8192	; 0x2000
 8002bde:	6043      	str	r3, [r0, #4]
 8002be0:	f3cb 0b09 	ubfx	fp, fp, #0, #10
 8002be4:	e785      	b.n	8002af2 <HAL_I2C_Master_Transmit+0xae>
 8002be6:	0555      	lsls	r5, r2, #21
 8002be8:	d4b4      	bmi.n	8002b54 <HAL_I2C_Master_Transmit+0x110>
 8002bea:	0592      	lsls	r2, r2, #22
 8002bec:	d4b9      	bmi.n	8002b62 <HAL_I2C_Master_Transmit+0x11e>
 8002bee:	2900      	cmp	r1, #0
 8002bf0:	d1bc      	bne.n	8002b6c <HAL_I2C_Master_Transmit+0x128>
 8002bf2:	1c75      	adds	r5, r6, #1
 8002bf4:	d084      	beq.n	8002b00 <HAL_I2C_Master_Transmit+0xbc>
 8002bf6:	f7ff faf5 	bl	80021e4 <HAL_GetTick>
 8002bfa:	eba0 0009 	sub.w	r0, r0, r9
 8002bfe:	4286      	cmp	r6, r0
 8002c00:	6820      	ldr	r0, [r4, #0]
 8002c02:	d302      	bcc.n	8002c0a <HAL_I2C_Master_Transmit+0x1c6>
 8002c04:	2e00      	cmp	r6, #0
 8002c06:	f47f af7b 	bne.w	8002b00 <HAL_I2C_Master_Transmit+0xbc>
 8002c0a:	6983      	ldr	r3, [r0, #24]
 8002c0c:	f013 0302 	ands.w	r3, r3, #2
 8002c10:	f47f af76 	bne.w	8002b00 <HAL_I2C_Master_Transmit+0xbc>
 8002c14:	6c62      	ldr	r2, [r4, #68]	; 0x44
 8002c16:	f884 3040 	strb.w	r3, [r4, #64]	; 0x40
 8002c1a:	2120      	movs	r1, #32
 8002c1c:	430a      	orrs	r2, r1
 8002c1e:	6462      	str	r2, [r4, #68]	; 0x44
 8002c20:	2001      	movs	r0, #1
 8002c22:	f884 1041 	strb.w	r1, [r4, #65]	; 0x41
 8002c26:	f884 3042 	strb.w	r3, [r4, #66]	; 0x42
 8002c2a:	e73e      	b.n	8002aaa <HAL_I2C_Master_Transmit+0x66>
 8002c2c:	4619      	mov	r1, r3
 8002c2e:	e787      	b.n	8002b40 <HAL_I2C_Master_Transmit+0xfc>
 8002c30:	069b      	lsls	r3, r3, #26
 8002c32:	d47d      	bmi.n	8002d30 <HAL_I2C_Master_Transmit+0x2ec>
 8002c34:	f1b8 0f00 	cmp.w	r8, #0
 8002c38:	f47f af7f 	bne.w	8002b3a <HAL_I2C_Master_Transmit+0xf6>
 8002c3c:	f7ff fad2 	bl	80021e4 <HAL_GetTick>
 8002c40:	1bc0      	subs	r0, r0, r7
 8002c42:	4286      	cmp	r6, r0
 8002c44:	6820      	ldr	r0, [r4, #0]
 8002c46:	d302      	bcc.n	8002c4e <HAL_I2C_Master_Transmit+0x20a>
 8002c48:	2e00      	cmp	r6, #0
 8002c4a:	f47f af67 	bne.w	8002b1c <HAL_I2C_Master_Transmit+0xd8>
 8002c4e:	6841      	ldr	r1, [r0, #4]
 8002c50:	f894 3042 	ldrb.w	r3, [r4, #66]	; 0x42
 8002c54:	6982      	ldr	r2, [r0, #24]
 8002c56:	0412      	lsls	r2, r2, #16
 8002c58:	b2db      	uxtb	r3, r3
 8002c5a:	d50b      	bpl.n	8002c74 <HAL_I2C_Master_Transmit+0x230>
 8002c5c:	044a      	lsls	r2, r1, #17
 8002c5e:	d409      	bmi.n	8002c74 <HAL_I2C_Master_Transmit+0x230>
 8002c60:	2b20      	cmp	r3, #32
 8002c62:	d007      	beq.n	8002c74 <HAL_I2C_Master_Transmit+0x230>
 8002c64:	6843      	ldr	r3, [r0, #4]
 8002c66:	f443 4380 	orr.w	r3, r3, #16384	; 0x4000
 8002c6a:	6043      	str	r3, [r0, #4]
 8002c6c:	f7ff faba 	bl	80021e4 <HAL_GetTick>
 8002c70:	4607      	mov	r7, r0
 8002c72:	6820      	ldr	r0, [r4, #0]
 8002c74:	6983      	ldr	r3, [r0, #24]
 8002c76:	0699      	lsls	r1, r3, #26
 8002c78:	f53f af50 	bmi.w	8002b1c <HAL_I2C_Master_Transmit+0xd8>
 8002c7c:	f7ff fab2 	bl	80021e4 <HAL_GetTick>
 8002c80:	1bc0      	subs	r0, r0, r7
 8002c82:	2819      	cmp	r0, #25
 8002c84:	6820      	ldr	r0, [r4, #0]
 8002c86:	d9f5      	bls.n	8002c74 <HAL_I2C_Master_Transmit+0x230>
 8002c88:	2520      	movs	r5, #32
 8002c8a:	f04f 0801 	mov.w	r8, #1
 8002c8e:	e745      	b.n	8002b1c <HAL_I2C_Master_Transmit+0xd8>
 8002c90:	6a61      	ldr	r1, [r4, #36]	; 0x24
 8002c92:	8d23      	ldrh	r3, [r4, #40]	; 0x28
 8002c94:	f811 2b01 	ldrb.w	r2, [r1], #1
 8002c98:	6282      	str	r2, [r0, #40]	; 0x28
 8002c9a:	8d62      	ldrh	r2, [r4, #42]	; 0x2a
 8002c9c:	6261      	str	r1, [r4, #36]	; 0x24
 8002c9e:	3a01      	subs	r2, #1
 8002ca0:	b292      	uxth	r2, r2
 8002ca2:	8562      	strh	r2, [r4, #42]	; 0x2a
 8002ca4:	8d62      	ldrh	r2, [r4, #42]	; 0x2a
 8002ca6:	3b01      	subs	r3, #1
 8002ca8:	b29b      	uxth	r3, r3
 8002caa:	b292      	uxth	r2, r2
 8002cac:	8523      	strh	r3, [r4, #40]	; 0x28
 8002cae:	b102      	cbz	r2, 8002cb2 <HAL_I2C_Master_Transmit+0x26e>
 8002cb0:	b343      	cbz	r3, 8002d04 <HAL_I2C_Master_Transmit+0x2c0>
 8002cb2:	8d63      	ldrh	r3, [r4, #42]	; 0x2a
 8002cb4:	b29b      	uxth	r3, r3
 8002cb6:	2b00      	cmp	r3, #0
 8002cb8:	f47f af22 	bne.w	8002b00 <HAL_I2C_Master_Transmit+0xbc>
 8002cbc:	464a      	mov	r2, r9
 8002cbe:	4631      	mov	r1, r6
 8002cc0:	4620      	mov	r0, r4
 8002cc2:	f7ff fda9 	bl	8002818 <I2C_WaitOnSTOPFlagUntilTimeout>
 8002cc6:	2800      	cmp	r0, #0
 8002cc8:	d146      	bne.n	8002d58 <HAL_I2C_Master_Transmit+0x314>
 8002cca:	6823      	ldr	r3, [r4, #0]
 8002ccc:	4d28      	ldr	r5, [pc, #160]	; (8002d70 <HAL_I2C_Master_Transmit+0x32c>)
 8002cce:	2120      	movs	r1, #32
 8002cd0:	61d9      	str	r1, [r3, #28]
 8002cd2:	685a      	ldr	r2, [r3, #4]
 8002cd4:	402a      	ands	r2, r5
 8002cd6:	605a      	str	r2, [r3, #4]
 8002cd8:	f884 1041 	strb.w	r1, [r4, #65]	; 0x41
 8002cdc:	f884 0040 	strb.w	r0, [r4, #64]	; 0x40
 8002ce0:	f884 0042 	strb.w	r0, [r4, #66]	; 0x42
 8002ce4:	e6e1      	b.n	8002aaa <HAL_I2C_Master_Transmit+0x66>
 8002ce6:	6983      	ldr	r3, [r0, #24]
 8002ce8:	061b      	lsls	r3, r3, #24
 8002cea:	d410      	bmi.n	8002d0e <HAL_I2C_Master_Transmit+0x2ca>
 8002cec:	f7ff fa7a 	bl	80021e4 <HAL_GetTick>
 8002cf0:	eba0 0009 	sub.w	r0, r0, r9
 8002cf4:	4286      	cmp	r6, r0
 8002cf6:	6820      	ldr	r0, [r4, #0]
 8002cf8:	d300      	bcc.n	8002cfc <HAL_I2C_Master_Transmit+0x2b8>
 8002cfa:	b91e      	cbnz	r6, 8002d04 <HAL_I2C_Master_Transmit+0x2c0>
 8002cfc:	6983      	ldr	r3, [r0, #24]
 8002cfe:	f013 0380 	ands.w	r3, r3, #128	; 0x80
 8002d02:	d087      	beq.n	8002c14 <HAL_I2C_Master_Transmit+0x1d0>
 8002d04:	1c71      	adds	r1, r6, #1
 8002d06:	d1ee      	bne.n	8002ce6 <HAL_I2C_Master_Transmit+0x2a2>
 8002d08:	6983      	ldr	r3, [r0, #24]
 8002d0a:	061a      	lsls	r2, r3, #24
 8002d0c:	d5fc      	bpl.n	8002d08 <HAL_I2C_Master_Transmit+0x2c4>
 8002d0e:	8d63      	ldrh	r3, [r4, #42]	; 0x2a
 8002d10:	b29b      	uxth	r3, r3
 8002d12:	2bff      	cmp	r3, #255	; 0xff
 8002d14:	d911      	bls.n	8002d3a <HAL_I2C_Master_Transmit+0x2f6>
 8002d16:	6843      	ldr	r3, [r0, #4]
 8002d18:	4a16      	ldr	r2, [pc, #88]	; (8002d74 <HAL_I2C_Master_Transmit+0x330>)
 8002d1a:	4013      	ands	r3, r2
 8002d1c:	ea4b 0303 	orr.w	r3, fp, r3
 8002d20:	f043 73ff 	orr.w	r3, r3, #33423360	; 0x1fe0000
 8002d24:	f443 3380 	orr.w	r3, r3, #65536	; 0x10000
 8002d28:	22ff      	movs	r2, #255	; 0xff
 8002d2a:	8522      	strh	r2, [r4, #40]	; 0x28
 8002d2c:	6043      	str	r3, [r0, #4]
 8002d2e:	e7c0      	b.n	8002cb2 <HAL_I2C_Master_Transmit+0x26e>
 8002d30:	f1b8 0f00 	cmp.w	r8, #0
 8002d34:	f43f aeff 	beq.w	8002b36 <HAL_I2C_Master_Transmit+0xf2>
 8002d38:	e6ff      	b.n	8002b3a <HAL_I2C_Master_Transmit+0xf6>
 8002d3a:	8d63      	ldrh	r3, [r4, #42]	; 0x2a
 8002d3c:	490d      	ldr	r1, [pc, #52]	; (8002d74 <HAL_I2C_Master_Transmit+0x330>)
 8002d3e:	b29b      	uxth	r3, r3
 8002d40:	8523      	strh	r3, [r4, #40]	; 0x28
 8002d42:	b2da      	uxtb	r2, r3
 8002d44:	6843      	ldr	r3, [r0, #4]
 8002d46:	400b      	ands	r3, r1
 8002d48:	ea4b 0303 	orr.w	r3, fp, r3
 8002d4c:	ea43 4302 	orr.w	r3, r3, r2, lsl #16
 8002d50:	f043 7300 	orr.w	r3, r3, #33554432	; 0x2000000
 8002d54:	6043      	str	r3, [r0, #4]
 8002d56:	e7ac      	b.n	8002cb2 <HAL_I2C_Master_Transmit+0x26e>
 8002d58:	2001      	movs	r0, #1
 8002d5a:	e6a6      	b.n	8002aaa <HAL_I2C_Master_Transmit+0x66>
 8002d5c:	3b01      	subs	r3, #1
 8002d5e:	b29b      	uxth	r3, r3
 8002d60:	1c5a      	adds	r2, r3, #1
 8002d62:	b2d2      	uxtb	r2, r2
 8002d64:	0412      	lsls	r2, r2, #16
 8002d66:	f04f 7100 	mov.w	r1, #33554432	; 0x2000000
 8002d6a:	e724      	b.n	8002bb6 <HAL_I2C_Master_Transmit+0x172>
 8002d6c:	fc009800 	.word	0xfc009800
 8002d70:	fe00e800 	.word	0xfe00e800
 8002d74:	fc009c00 	.word	0xfc009c00

08002d78 <HAL_I2CEx_ConfigAnalogFilter>:
 8002d78:	f890 2041 	ldrb.w	r2, [r0, #65]	; 0x41
 8002d7c:	2a20      	cmp	r2, #32
 8002d7e:	d123      	bne.n	8002dc8 <HAL_I2CEx_ConfigAnalogFilter+0x50>
 8002d80:	fa5f fc82 	uxtb.w	ip, r2
 8002d84:	f890 2040 	ldrb.w	r2, [r0, #64]	; 0x40
 8002d88:	2a01      	cmp	r2, #1
 8002d8a:	4603      	mov	r3, r0
 8002d8c:	d01c      	beq.n	8002dc8 <HAL_I2CEx_ConfigAnalogFilter+0x50>
 8002d8e:	6802      	ldr	r2, [r0, #0]
 8002d90:	2024      	movs	r0, #36	; 0x24
 8002d92:	b500      	push	{lr}
 8002d94:	f883 0041 	strb.w	r0, [r3, #65]	; 0x41
 8002d98:	6810      	ldr	r0, [r2, #0]
 8002d9a:	f020 0001 	bic.w	r0, r0, #1
 8002d9e:	6010      	str	r0, [r2, #0]
 8002da0:	6810      	ldr	r0, [r2, #0]
 8002da2:	f420 5080 	bic.w	r0, r0, #4096	; 0x1000
 8002da6:	6010      	str	r0, [r2, #0]
 8002da8:	6810      	ldr	r0, [r2, #0]
 8002daa:	4301      	orrs	r1, r0
 8002dac:	6011      	str	r1, [r2, #0]
 8002dae:	6811      	ldr	r1, [r2, #0]
 8002db0:	f04f 0e00 	mov.w	lr, #0
 8002db4:	f041 0101 	orr.w	r1, r1, #1
 8002db8:	6011      	str	r1, [r2, #0]
 8002dba:	f883 c041 	strb.w	ip, [r3, #65]	; 0x41
 8002dbe:	f883 e040 	strb.w	lr, [r3, #64]	; 0x40
 8002dc2:	4670      	mov	r0, lr
 8002dc4:	f85d fb04 	ldr.w	pc, [sp], #4
 8002dc8:	2002      	movs	r0, #2
 8002dca:	4770      	bx	lr

08002dcc <HAL_I2CEx_ConfigDigitalFilter>:
 8002dcc:	f890 2041 	ldrb.w	r2, [r0, #65]	; 0x41
 8002dd0:	2a20      	cmp	r2, #32
 8002dd2:	d122      	bne.n	8002e1a <HAL_I2CEx_ConfigDigitalFilter+0x4e>
 8002dd4:	b500      	push	{lr}
 8002dd6:	fa5f fe82 	uxtb.w	lr, r2
 8002dda:	f890 2040 	ldrb.w	r2, [r0, #64]	; 0x40
 8002dde:	2a01      	cmp	r2, #1
 8002de0:	4603      	mov	r3, r0
 8002de2:	d01c      	beq.n	8002e1e <HAL_I2CEx_ConfigDigitalFilter+0x52>
 8002de4:	6802      	ldr	r2, [r0, #0]
 8002de6:	2024      	movs	r0, #36	; 0x24
 8002de8:	f883 0041 	strb.w	r0, [r3, #65]	; 0x41
 8002dec:	6810      	ldr	r0, [r2, #0]
 8002dee:	f020 0001 	bic.w	r0, r0, #1
 8002df2:	6010      	str	r0, [r2, #0]
 8002df4:	6810      	ldr	r0, [r2, #0]
 8002df6:	f420 6070 	bic.w	r0, r0, #3840	; 0xf00
 8002dfa:	ea40 2101 	orr.w	r1, r0, r1, lsl #8
 8002dfe:	6011      	str	r1, [r2, #0]
 8002e00:	6811      	ldr	r1, [r2, #0]
 8002e02:	f04f 0c00 	mov.w	ip, #0
 8002e06:	f041 0101 	orr.w	r1, r1, #1
 8002e0a:	6011      	str	r1, [r2, #0]
 8002e0c:	f883 e041 	strb.w	lr, [r3, #65]	; 0x41
 8002e10:	f883 c040 	strb.w	ip, [r3, #64]	; 0x40
 8002e14:	4660      	mov	r0, ip
 8002e16:	f85d fb04 	ldr.w	pc, [sp], #4
 8002e1a:	2002      	movs	r0, #2
 8002e1c:	4770      	bx	lr
 8002e1e:	2002      	movs	r0, #2
 8002e20:	f85d fb04 	ldr.w	pc, [sp], #4

08002e24 <HAL_PWREx_GetVoltageRange>:
 8002e24:	4b02      	ldr	r3, [pc, #8]	; (8002e30 <HAL_PWREx_GetVoltageRange+0xc>)
 8002e26:	6818      	ldr	r0, [r3, #0]
 8002e28:	f400 60c0 	and.w	r0, r0, #1536	; 0x600
 8002e2c:	4770      	bx	lr
 8002e2e:	bf00      	nop
 8002e30:	40007000 	.word	0x40007000

08002e34 <HAL_PWREx_ControlVoltageScaling>:
 8002e34:	f5b0 7f00 	cmp.w	r0, #512	; 0x200
 8002e38:	d00e      	beq.n	8002e58 <HAL_PWREx_ControlVoltageScaling+0x24>
 8002e3a:	4a1c      	ldr	r2, [pc, #112]	; (8002eac <HAL_PWREx_ControlVoltageScaling+0x78>)
 8002e3c:	6813      	ldr	r3, [r2, #0]
 8002e3e:	f403 63c0 	and.w	r3, r3, #1536	; 0x600
 8002e42:	f5b3 6f80 	cmp.w	r3, #1024	; 0x400
 8002e46:	d02d      	beq.n	8002ea4 <HAL_PWREx_ControlVoltageScaling+0x70>
 8002e48:	6813      	ldr	r3, [r2, #0]
 8002e4a:	f423 63c0 	bic.w	r3, r3, #1536	; 0x600
 8002e4e:	f443 6380 	orr.w	r3, r3, #1024	; 0x400
 8002e52:	2000      	movs	r0, #0
 8002e54:	6013      	str	r3, [r2, #0]
 8002e56:	4770      	bx	lr
 8002e58:	4914      	ldr	r1, [pc, #80]	; (8002eac <HAL_PWREx_ControlVoltageScaling+0x78>)
 8002e5a:	680b      	ldr	r3, [r1, #0]
 8002e5c:	f403 63c0 	and.w	r3, r3, #1536	; 0x600
 8002e60:	f5b3 7f00 	cmp.w	r3, #512	; 0x200
 8002e64:	d01e      	beq.n	8002ea4 <HAL_PWREx_ControlVoltageScaling+0x70>
 8002e66:	680b      	ldr	r3, [r1, #0]
 8002e68:	4a11      	ldr	r2, [pc, #68]	; (8002eb0 <HAL_PWREx_ControlVoltageScaling+0x7c>)
 8002e6a:	f423 63c0 	bic.w	r3, r3, #1536	; 0x600
 8002e6e:	f443 7300 	orr.w	r3, r3, #512	; 0x200
 8002e72:	600b      	str	r3, [r1, #0]
 8002e74:	6813      	ldr	r3, [r2, #0]
 8002e76:	4a0f      	ldr	r2, [pc, #60]	; (8002eb4 <HAL_PWREx_ControlVoltageScaling+0x80>)
 8002e78:	2032      	movs	r0, #50	; 0x32
 8002e7a:	fb00 f303 	mul.w	r3, r0, r3
 8002e7e:	6948      	ldr	r0, [r1, #20]
 8002e80:	fba2 2303 	umull	r2, r3, r2, r3
 8002e84:	0c9b      	lsrs	r3, r3, #18
 8002e86:	0540      	lsls	r0, r0, #21
 8002e88:	f103 0301 	add.w	r3, r3, #1
 8002e8c:	d506      	bpl.n	8002e9c <HAL_PWREx_ControlVoltageScaling+0x68>
 8002e8e:	e000      	b.n	8002e92 <HAL_PWREx_ControlVoltageScaling+0x5e>
 8002e90:	b123      	cbz	r3, 8002e9c <HAL_PWREx_ControlVoltageScaling+0x68>
 8002e92:	694a      	ldr	r2, [r1, #20]
 8002e94:	0552      	lsls	r2, r2, #21
 8002e96:	f103 33ff 	add.w	r3, r3, #4294967295
 8002e9a:	d4f9      	bmi.n	8002e90 <HAL_PWREx_ControlVoltageScaling+0x5c>
 8002e9c:	4b03      	ldr	r3, [pc, #12]	; (8002eac <HAL_PWREx_ControlVoltageScaling+0x78>)
 8002e9e:	695b      	ldr	r3, [r3, #20]
 8002ea0:	055b      	lsls	r3, r3, #21
 8002ea2:	d401      	bmi.n	8002ea8 <HAL_PWREx_ControlVoltageScaling+0x74>
 8002ea4:	2000      	movs	r0, #0
 8002ea6:	4770      	bx	lr
 8002ea8:	2003      	movs	r0, #3
 8002eaa:	4770      	bx	lr
 8002eac:	40007000 	.word	0x40007000
 8002eb0:	20000034 	.word	0x20000034
 8002eb4:	431bde83 	.word	0x431bde83

08002eb8 <RCC_SetFlashLatencyFromMSIRange>:
 8002eb8:	b530      	push	{r4, r5, lr}
 8002eba:	4d20      	ldr	r5, [pc, #128]	; (8002f3c <RCC_SetFlashLatencyFromMSIRange+0x84>)
 8002ebc:	6dab      	ldr	r3, [r5, #88]	; 0x58
 8002ebe:	00db      	lsls	r3, r3, #3
 8002ec0:	b083      	sub	sp, #12
 8002ec2:	4604      	mov	r4, r0
 8002ec4:	d51c      	bpl.n	8002f00 <RCC_SetFlashLatencyFromMSIRange+0x48>
 8002ec6:	f7ff ffad 	bl	8002e24 <HAL_PWREx_GetVoltageRange>
 8002eca:	f5b0 7f00 	cmp.w	r0, #512	; 0x200
 8002ece:	d029      	beq.n	8002f24 <RCC_SetFlashLatencyFromMSIRange+0x6c>
 8002ed0:	2c80      	cmp	r4, #128	; 0x80
 8002ed2:	d813      	bhi.n	8002efc <RCC_SetFlashLatencyFromMSIRange+0x44>
 8002ed4:	d02f      	beq.n	8002f36 <RCC_SetFlashLatencyFromMSIRange+0x7e>
 8002ed6:	f1a4 0470 	sub.w	r4, r4, #112	; 0x70
 8002eda:	fab4 f484 	clz	r4, r4
 8002ede:	0964      	lsrs	r4, r4, #5
 8002ee0:	4917      	ldr	r1, [pc, #92]	; (8002f40 <RCC_SetFlashLatencyFromMSIRange+0x88>)
 8002ee2:	680b      	ldr	r3, [r1, #0]
 8002ee4:	f023 0307 	bic.w	r3, r3, #7
 8002ee8:	4323      	orrs	r3, r4
 8002eea:	600b      	str	r3, [r1, #0]
 8002eec:	6808      	ldr	r0, [r1, #0]
 8002eee:	f000 0007 	and.w	r0, r0, #7
 8002ef2:	1b00      	subs	r0, r0, r4
 8002ef4:	bf18      	it	ne
 8002ef6:	2001      	movne	r0, #1
 8002ef8:	b003      	add	sp, #12
 8002efa:	bd30      	pop	{r4, r5, pc}
 8002efc:	2403      	movs	r4, #3
 8002efe:	e7ef      	b.n	8002ee0 <RCC_SetFlashLatencyFromMSIRange+0x28>
 8002f00:	6dab      	ldr	r3, [r5, #88]	; 0x58
 8002f02:	f043 5380 	orr.w	r3, r3, #268435456	; 0x10000000
 8002f06:	65ab      	str	r3, [r5, #88]	; 0x58
 8002f08:	6dab      	ldr	r3, [r5, #88]	; 0x58
 8002f0a:	f003 5380 	and.w	r3, r3, #268435456	; 0x10000000
 8002f0e:	9301      	str	r3, [sp, #4]
 8002f10:	9b01      	ldr	r3, [sp, #4]
 8002f12:	f7ff ff87 	bl	8002e24 <HAL_PWREx_GetVoltageRange>
 8002f16:	6dab      	ldr	r3, [r5, #88]	; 0x58
 8002f18:	f5b0 7f00 	cmp.w	r0, #512	; 0x200
 8002f1c:	f023 5380 	bic.w	r3, r3, #268435456	; 0x10000000
 8002f20:	65ab      	str	r3, [r5, #88]	; 0x58
 8002f22:	d1d5      	bne.n	8002ed0 <RCC_SetFlashLatencyFromMSIRange+0x18>
 8002f24:	2c80      	cmp	r4, #128	; 0x80
 8002f26:	d904      	bls.n	8002f32 <RCC_SetFlashLatencyFromMSIRange+0x7a>
 8002f28:	2ca0      	cmp	r4, #160	; 0xa0
 8002f2a:	bf8c      	ite	hi
 8002f2c:	2402      	movhi	r4, #2
 8002f2e:	2401      	movls	r4, #1
 8002f30:	e7d6      	b.n	8002ee0 <RCC_SetFlashLatencyFromMSIRange+0x28>
 8002f32:	2400      	movs	r4, #0
 8002f34:	e7d4      	b.n	8002ee0 <RCC_SetFlashLatencyFromMSIRange+0x28>
 8002f36:	2402      	movs	r4, #2
 8002f38:	e7d2      	b.n	8002ee0 <RCC_SetFlashLatencyFromMSIRange+0x28>
 8002f3a:	bf00      	nop
 8002f3c:	40021000 	.word	0x40021000
 8002f40:	40022000 	.word	0x40022000

08002f44 <HAL_RCC_GetSysClockFreq>:
 8002f44:	4a28      	ldr	r2, [pc, #160]	; (8002fe8 <HAL_RCC_GetSysClockFreq+0xa4>)
 8002f46:	6893      	ldr	r3, [r2, #8]
 8002f48:	68d2      	ldr	r2, [r2, #12]
 8002f4a:	f013 030c 	ands.w	r3, r3, #12
 8002f4e:	d008      	beq.n	8002f62 <HAL_RCC_GetSysClockFreq+0x1e>
 8002f50:	2b0c      	cmp	r3, #12
 8002f52:	d038      	beq.n	8002fc6 <HAL_RCC_GetSysClockFreq+0x82>
 8002f54:	2b04      	cmp	r3, #4
 8002f56:	d034      	beq.n	8002fc2 <HAL_RCC_GetSysClockFreq+0x7e>
 8002f58:	2b08      	cmp	r3, #8
 8002f5a:	4824      	ldr	r0, [pc, #144]	; (8002fec <HAL_RCC_GetSysClockFreq+0xa8>)
 8002f5c:	bf18      	it	ne
 8002f5e:	2000      	movne	r0, #0
 8002f60:	4770      	bx	lr
 8002f62:	4a21      	ldr	r2, [pc, #132]	; (8002fe8 <HAL_RCC_GetSysClockFreq+0xa4>)
 8002f64:	6811      	ldr	r1, [r2, #0]
 8002f66:	0709      	lsls	r1, r1, #28
 8002f68:	bf54      	ite	pl
 8002f6a:	f8d2 2094 	ldrpl.w	r2, [r2, #148]	; 0x94
 8002f6e:	6812      	ldrmi	r2, [r2, #0]
 8002f70:	491f      	ldr	r1, [pc, #124]	; (8002ff0 <HAL_RCC_GetSysClockFreq+0xac>)
 8002f72:	bf54      	ite	pl
 8002f74:	f3c2 2203 	ubfxpl	r2, r2, #8, #4
 8002f78:	f3c2 1203 	ubfxmi	r2, r2, #4, #4
 8002f7c:	f851 0022 	ldr.w	r0, [r1, r2, lsl #2]
 8002f80:	b303      	cbz	r3, 8002fc4 <HAL_RCC_GetSysClockFreq+0x80>
 8002f82:	2b0c      	cmp	r3, #12
 8002f84:	d12d      	bne.n	8002fe2 <HAL_RCC_GetSysClockFreq+0x9e>
 8002f86:	4b18      	ldr	r3, [pc, #96]	; (8002fe8 <HAL_RCC_GetSysClockFreq+0xa4>)
 8002f88:	68db      	ldr	r3, [r3, #12]
 8002f8a:	f003 0303 	and.w	r3, r3, #3
 8002f8e:	2b02      	cmp	r3, #2
 8002f90:	d025      	beq.n	8002fde <HAL_RCC_GetSysClockFreq+0x9a>
 8002f92:	4a16      	ldr	r2, [pc, #88]	; (8002fec <HAL_RCC_GetSysClockFreq+0xa8>)
 8002f94:	2b03      	cmp	r3, #3
 8002f96:	bf08      	it	eq
 8002f98:	4610      	moveq	r0, r2
 8002f9a:	4b13      	ldr	r3, [pc, #76]	; (8002fe8 <HAL_RCC_GetSysClockFreq+0xa4>)
 8002f9c:	68d9      	ldr	r1, [r3, #12]
 8002f9e:	68da      	ldr	r2, [r3, #12]
 8002fa0:	68db      	ldr	r3, [r3, #12]
 8002fa2:	f3c3 6341 	ubfx	r3, r3, #25, #2
 8002fa6:	f3c2 2206 	ubfx	r2, r2, #8, #7
 8002faa:	f3c1 1102 	ubfx	r1, r1, #4, #3
 8002fae:	3301      	adds	r3, #1
 8002fb0:	fb00 f202 	mul.w	r2, r0, r2
 8002fb4:	3101      	adds	r1, #1
 8002fb6:	005b      	lsls	r3, r3, #1
 8002fb8:	fbb2 f2f1 	udiv	r2, r2, r1
 8002fbc:	fbb2 f0f3 	udiv	r0, r2, r3
 8002fc0:	4770      	bx	lr
 8002fc2:	480c      	ldr	r0, [pc, #48]	; (8002ff4 <HAL_RCC_GetSysClockFreq+0xb0>)
 8002fc4:	4770      	bx	lr
 8002fc6:	f002 0203 	and.w	r2, r2, #3
 8002fca:	2a01      	cmp	r2, #1
 8002fcc:	d0c9      	beq.n	8002f62 <HAL_RCC_GetSysClockFreq+0x1e>
 8002fce:	4b06      	ldr	r3, [pc, #24]	; (8002fe8 <HAL_RCC_GetSysClockFreq+0xa4>)
 8002fd0:	68db      	ldr	r3, [r3, #12]
 8002fd2:	f003 0303 	and.w	r3, r3, #3
 8002fd6:	2b02      	cmp	r3, #2
 8002fd8:	f04f 0000 	mov.w	r0, #0
 8002fdc:	d1d9      	bne.n	8002f92 <HAL_RCC_GetSysClockFreq+0x4e>
 8002fde:	4805      	ldr	r0, [pc, #20]	; (8002ff4 <HAL_RCC_GetSysClockFreq+0xb0>)
 8002fe0:	e7db      	b.n	8002f9a <HAL_RCC_GetSysClockFreq+0x56>
 8002fe2:	2000      	movs	r0, #0
 8002fe4:	4770      	bx	lr
 8002fe6:	bf00      	nop
 8002fe8:	40021000 	.word	0x40021000
 8002fec:	007a1200 	.word	0x007a1200
 8002ff0:	08007480 	.word	0x08007480
 8002ff4:	00f42400 	.word	0x00f42400

08002ff8 <HAL_RCC_OscConfig>:
 8002ff8:	2800      	cmp	r0, #0
 8002ffa:	f000 824a 	beq.w	8003492 <HAL_RCC_OscConfig+0x49a>
 8002ffe:	e92d 43f0 	stmdb	sp!, {r4, r5, r6, r7, r8, r9, lr}
 8003002:	4aa8      	ldr	r2, [pc, #672]	; (80032a4 <HAL_RCC_OscConfig+0x2ac>)
 8003004:	6803      	ldr	r3, [r0, #0]
 8003006:	6895      	ldr	r5, [r2, #8]
 8003008:	68d6      	ldr	r6, [r2, #12]
 800300a:	4604      	mov	r4, r0
 800300c:	06d8      	lsls	r0, r3, #27
 800300e:	b083      	sub	sp, #12
 8003010:	f005 050c 	and.w	r5, r5, #12
 8003014:	f006 0603 	and.w	r6, r6, #3
 8003018:	d52e      	bpl.n	8003078 <HAL_RCC_OscConfig+0x80>
 800301a:	2d00      	cmp	r5, #0
 800301c:	f000 8103 	beq.w	8003226 <HAL_RCC_OscConfig+0x22e>
 8003020:	2d0c      	cmp	r5, #12
 8003022:	f000 80fd 	beq.w	8003220 <HAL_RCC_OscConfig+0x228>
 8003026:	69a3      	ldr	r3, [r4, #24]
 8003028:	4f9e      	ldr	r7, [pc, #632]	; (80032a4 <HAL_RCC_OscConfig+0x2ac>)
 800302a:	2b00      	cmp	r3, #0
 800302c:	f000 81d7 	beq.w	80033de <HAL_RCC_OscConfig+0x3e6>
 8003030:	683b      	ldr	r3, [r7, #0]
 8003032:	f043 0301 	orr.w	r3, r3, #1
 8003036:	603b      	str	r3, [r7, #0]
 8003038:	f7ff f8d4 	bl	80021e4 <HAL_GetTick>
 800303c:	4680      	mov	r8, r0
 800303e:	e006      	b.n	800304e <HAL_RCC_OscConfig+0x56>
 8003040:	f7ff f8d0 	bl	80021e4 <HAL_GetTick>
 8003044:	eba0 0008 	sub.w	r0, r0, r8
 8003048:	2802      	cmp	r0, #2
 800304a:	f200 81d9 	bhi.w	8003400 <HAL_RCC_OscConfig+0x408>
 800304e:	683b      	ldr	r3, [r7, #0]
 8003050:	079b      	lsls	r3, r3, #30
 8003052:	d5f5      	bpl.n	8003040 <HAL_RCC_OscConfig+0x48>
 8003054:	683b      	ldr	r3, [r7, #0]
 8003056:	f043 0308 	orr.w	r3, r3, #8
 800305a:	603b      	str	r3, [r7, #0]
 800305c:	683b      	ldr	r3, [r7, #0]
 800305e:	6a22      	ldr	r2, [r4, #32]
 8003060:	f023 03f0 	bic.w	r3, r3, #240	; 0xf0
 8003064:	4313      	orrs	r3, r2
 8003066:	603b      	str	r3, [r7, #0]
 8003068:	687b      	ldr	r3, [r7, #4]
 800306a:	69e2      	ldr	r2, [r4, #28]
 800306c:	f423 437f 	bic.w	r3, r3, #65280	; 0xff00
 8003070:	ea43 2302 	orr.w	r3, r3, r2, lsl #8
 8003074:	607b      	str	r3, [r7, #4]
 8003076:	6823      	ldr	r3, [r4, #0]
 8003078:	07d9      	lsls	r1, r3, #31
 800307a:	f100 80a6 	bmi.w	80031ca <HAL_RCC_OscConfig+0x1d2>
 800307e:	0799      	lsls	r1, r3, #30
 8003080:	d523      	bpl.n	80030ca <HAL_RCC_OscConfig+0xd2>
 8003082:	2d04      	cmp	r5, #4
 8003084:	f000 819a 	beq.w	80033bc <HAL_RCC_OscConfig+0x3c4>
 8003088:	2d0c      	cmp	r5, #12
 800308a:	f000 8194 	beq.w	80033b6 <HAL_RCC_OscConfig+0x3be>
 800308e:	68e3      	ldr	r3, [r4, #12]
 8003090:	4e84      	ldr	r6, [pc, #528]	; (80032a4 <HAL_RCC_OscConfig+0x2ac>)
 8003092:	2b00      	cmp	r3, #0
 8003094:	f000 81cf 	beq.w	8003436 <HAL_RCC_OscConfig+0x43e>
 8003098:	6833      	ldr	r3, [r6, #0]
 800309a:	f443 7380 	orr.w	r3, r3, #256	; 0x100
 800309e:	6033      	str	r3, [r6, #0]
 80030a0:	f7ff f8a0 	bl	80021e4 <HAL_GetTick>
 80030a4:	4607      	mov	r7, r0
 80030a6:	e005      	b.n	80030b4 <HAL_RCC_OscConfig+0xbc>
 80030a8:	f7ff f89c 	bl	80021e4 <HAL_GetTick>
 80030ac:	1bc0      	subs	r0, r0, r7
 80030ae:	2802      	cmp	r0, #2
 80030b0:	f200 81a6 	bhi.w	8003400 <HAL_RCC_OscConfig+0x408>
 80030b4:	6833      	ldr	r3, [r6, #0]
 80030b6:	055b      	lsls	r3, r3, #21
 80030b8:	d5f6      	bpl.n	80030a8 <HAL_RCC_OscConfig+0xb0>
 80030ba:	6873      	ldr	r3, [r6, #4]
 80030bc:	6922      	ldr	r2, [r4, #16]
 80030be:	f023 53f8 	bic.w	r3, r3, #520093696	; 0x1f000000
 80030c2:	ea43 6302 	orr.w	r3, r3, r2, lsl #24
 80030c6:	6073      	str	r3, [r6, #4]
 80030c8:	6823      	ldr	r3, [r4, #0]
 80030ca:	0719      	lsls	r1, r3, #28
 80030cc:	d519      	bpl.n	8003102 <HAL_RCC_OscConfig+0x10a>
 80030ce:	6963      	ldr	r3, [r4, #20]
 80030d0:	4e74      	ldr	r6, [pc, #464]	; (80032a4 <HAL_RCC_OscConfig+0x2ac>)
 80030d2:	2b00      	cmp	r3, #0
 80030d4:	f000 815b 	beq.w	800338e <HAL_RCC_OscConfig+0x396>
 80030d8:	f8d6 3094 	ldr.w	r3, [r6, #148]	; 0x94
 80030dc:	f043 0301 	orr.w	r3, r3, #1
 80030e0:	f8c6 3094 	str.w	r3, [r6, #148]	; 0x94
 80030e4:	f7ff f87e 	bl	80021e4 <HAL_GetTick>
 80030e8:	4607      	mov	r7, r0
 80030ea:	e005      	b.n	80030f8 <HAL_RCC_OscConfig+0x100>
 80030ec:	f7ff f87a 	bl	80021e4 <HAL_GetTick>
 80030f0:	1bc0      	subs	r0, r0, r7
 80030f2:	2802      	cmp	r0, #2
 80030f4:	f200 8184 	bhi.w	8003400 <HAL_RCC_OscConfig+0x408>
 80030f8:	f8d6 3094 	ldr.w	r3, [r6, #148]	; 0x94
 80030fc:	079a      	lsls	r2, r3, #30
 80030fe:	d5f5      	bpl.n	80030ec <HAL_RCC_OscConfig+0xf4>
 8003100:	6823      	ldr	r3, [r4, #0]
 8003102:	075f      	lsls	r7, r3, #29
 8003104:	d53e      	bpl.n	8003184 <HAL_RCC_OscConfig+0x18c>
 8003106:	4b67      	ldr	r3, [pc, #412]	; (80032a4 <HAL_RCC_OscConfig+0x2ac>)
 8003108:	6d9a      	ldr	r2, [r3, #88]	; 0x58
 800310a:	00d6      	lsls	r6, r2, #3
 800310c:	f100 8191 	bmi.w	8003432 <HAL_RCC_OscConfig+0x43a>
 8003110:	6d9a      	ldr	r2, [r3, #88]	; 0x58
 8003112:	f042 5280 	orr.w	r2, r2, #268435456	; 0x10000000
 8003116:	659a      	str	r2, [r3, #88]	; 0x58
 8003118:	6d9b      	ldr	r3, [r3, #88]	; 0x58
 800311a:	f003 5380 	and.w	r3, r3, #268435456	; 0x10000000
 800311e:	9301      	str	r3, [sp, #4]
 8003120:	9b01      	ldr	r3, [sp, #4]
 8003122:	2601      	movs	r6, #1
 8003124:	4f60      	ldr	r7, [pc, #384]	; (80032a8 <HAL_RCC_OscConfig+0x2b0>)
 8003126:	683b      	ldr	r3, [r7, #0]
 8003128:	05d8      	lsls	r0, r3, #23
 800312a:	f140 81cc 	bpl.w	80034c6 <HAL_RCC_OscConfig+0x4ce>
 800312e:	68a3      	ldr	r3, [r4, #8]
 8003130:	2b01      	cmp	r3, #1
 8003132:	f000 8192 	beq.w	800345a <HAL_RCC_OscConfig+0x462>
 8003136:	2b05      	cmp	r3, #5
 8003138:	f000 81f0 	beq.w	800351c <HAL_RCC_OscConfig+0x524>
 800313c:	4f59      	ldr	r7, [pc, #356]	; (80032a4 <HAL_RCC_OscConfig+0x2ac>)
 800313e:	f8d7 2090 	ldr.w	r2, [r7, #144]	; 0x90
 8003142:	f022 0201 	bic.w	r2, r2, #1
 8003146:	f8c7 2090 	str.w	r2, [r7, #144]	; 0x90
 800314a:	f8d7 2090 	ldr.w	r2, [r7, #144]	; 0x90
 800314e:	f022 0204 	bic.w	r2, r2, #4
 8003152:	f8c7 2090 	str.w	r2, [r7, #144]	; 0x90
 8003156:	2b00      	cmp	r3, #0
 8003158:	f040 8186 	bne.w	8003468 <HAL_RCC_OscConfig+0x470>
 800315c:	f7ff f842 	bl	80021e4 <HAL_GetTick>
 8003160:	f241 3988 	movw	r9, #5000	; 0x1388
 8003164:	4680      	mov	r8, r0
 8003166:	e006      	b.n	8003176 <HAL_RCC_OscConfig+0x17e>
 8003168:	f7ff f83c 	bl	80021e4 <HAL_GetTick>
 800316c:	eba0 0008 	sub.w	r0, r0, r8
 8003170:	4548      	cmp	r0, r9
 8003172:	f200 8145 	bhi.w	8003400 <HAL_RCC_OscConfig+0x408>
 8003176:	f8d7 3090 	ldr.w	r3, [r7, #144]	; 0x90
 800317a:	079b      	lsls	r3, r3, #30
 800317c:	d4f4      	bmi.n	8003168 <HAL_RCC_OscConfig+0x170>
 800317e:	2e00      	cmp	r6, #0
 8003180:	f040 81b3 	bne.w	80034ea <HAL_RCC_OscConfig+0x4f2>
 8003184:	6aa3      	ldr	r3, [r4, #40]	; 0x28
 8003186:	2b00      	cmp	r3, #0
 8003188:	f000 80f0 	beq.w	800336c <HAL_RCC_OscConfig+0x374>
 800318c:	2b02      	cmp	r3, #2
 800318e:	f000 809c 	beq.w	80032ca <HAL_RCC_OscConfig+0x2d2>
 8003192:	2d0c      	cmp	r5, #12
 8003194:	f000 8095 	beq.w	80032c2 <HAL_RCC_OscConfig+0x2ca>
 8003198:	4c42      	ldr	r4, [pc, #264]	; (80032a4 <HAL_RCC_OscConfig+0x2ac>)
 800319a:	6823      	ldr	r3, [r4, #0]
 800319c:	f023 7380 	bic.w	r3, r3, #16777216	; 0x1000000
 80031a0:	6023      	str	r3, [r4, #0]
 80031a2:	f7ff f81f 	bl	80021e4 <HAL_GetTick>
 80031a6:	4605      	mov	r5, r0
 80031a8:	e005      	b.n	80031b6 <HAL_RCC_OscConfig+0x1be>
 80031aa:	f7ff f81b 	bl	80021e4 <HAL_GetTick>
 80031ae:	1b40      	subs	r0, r0, r5
 80031b0:	2802      	cmp	r0, #2
 80031b2:	f200 8125 	bhi.w	8003400 <HAL_RCC_OscConfig+0x408>
 80031b6:	6823      	ldr	r3, [r4, #0]
 80031b8:	f013 7300 	ands.w	r3, r3, #33554432	; 0x2000000
 80031bc:	d1f5      	bne.n	80031aa <HAL_RCC_OscConfig+0x1b2>
 80031be:	68e1      	ldr	r1, [r4, #12]
 80031c0:	4a3a      	ldr	r2, [pc, #232]	; (80032ac <HAL_RCC_OscConfig+0x2b4>)
 80031c2:	400a      	ands	r2, r1
 80031c4:	4618      	mov	r0, r3
 80031c6:	60e2      	str	r2, [r4, #12]
 80031c8:	e0d1      	b.n	800336e <HAL_RCC_OscConfig+0x376>
 80031ca:	2d08      	cmp	r5, #8
 80031cc:	f000 80d5 	beq.w	800337a <HAL_RCC_OscConfig+0x382>
 80031d0:	2d0c      	cmp	r5, #12
 80031d2:	f000 80cf 	beq.w	8003374 <HAL_RCC_OscConfig+0x37c>
 80031d6:	6863      	ldr	r3, [r4, #4]
 80031d8:	f5b3 3f80 	cmp.w	r3, #65536	; 0x10000
 80031dc:	f000 8114 	beq.w	8003408 <HAL_RCC_OscConfig+0x410>
 80031e0:	f5b3 2fa0 	cmp.w	r3, #327680	; 0x50000
 80031e4:	f000 818d 	beq.w	8003502 <HAL_RCC_OscConfig+0x50a>
 80031e8:	4f2e      	ldr	r7, [pc, #184]	; (80032a4 <HAL_RCC_OscConfig+0x2ac>)
 80031ea:	683a      	ldr	r2, [r7, #0]
 80031ec:	f422 3280 	bic.w	r2, r2, #65536	; 0x10000
 80031f0:	603a      	str	r2, [r7, #0]
 80031f2:	683a      	ldr	r2, [r7, #0]
 80031f4:	f422 2280 	bic.w	r2, r2, #262144	; 0x40000
 80031f8:	603a      	str	r2, [r7, #0]
 80031fa:	2b00      	cmp	r3, #0
 80031fc:	f040 8109 	bne.w	8003412 <HAL_RCC_OscConfig+0x41a>
 8003200:	f7fe fff0 	bl	80021e4 <HAL_GetTick>
 8003204:	4680      	mov	r8, r0
 8003206:	e006      	b.n	8003216 <HAL_RCC_OscConfig+0x21e>
 8003208:	f7fe ffec 	bl	80021e4 <HAL_GetTick>
 800320c:	eba0 0008 	sub.w	r0, r0, r8
 8003210:	2864      	cmp	r0, #100	; 0x64
 8003212:	f200 80f5 	bhi.w	8003400 <HAL_RCC_OscConfig+0x408>
 8003216:	683b      	ldr	r3, [r7, #0]
 8003218:	0398      	lsls	r0, r3, #14
 800321a:	d4f5      	bmi.n	8003208 <HAL_RCC_OscConfig+0x210>
 800321c:	6823      	ldr	r3, [r4, #0]
 800321e:	e72e      	b.n	800307e <HAL_RCC_OscConfig+0x86>
 8003220:	2e01      	cmp	r6, #1
 8003222:	f47f af00 	bne.w	8003026 <HAL_RCC_OscConfig+0x2e>
 8003226:	4b1f      	ldr	r3, [pc, #124]	; (80032a4 <HAL_RCC_OscConfig+0x2ac>)
 8003228:	681b      	ldr	r3, [r3, #0]
 800322a:	0799      	lsls	r1, r3, #30
 800322c:	d446      	bmi.n	80032bc <HAL_RCC_OscConfig+0x2c4>
 800322e:	4b1d      	ldr	r3, [pc, #116]	; (80032a4 <HAL_RCC_OscConfig+0x2ac>)
 8003230:	6a20      	ldr	r0, [r4, #32]
 8003232:	681a      	ldr	r2, [r3, #0]
 8003234:	0712      	lsls	r2, r2, #28
 8003236:	bf56      	itet	pl
 8003238:	f8d3 3094 	ldrpl.w	r3, [r3, #148]	; 0x94
 800323c:	681b      	ldrmi	r3, [r3, #0]
 800323e:	091b      	lsrpl	r3, r3, #4
 8003240:	f003 03f0 	and.w	r3, r3, #240	; 0xf0
 8003244:	4298      	cmp	r0, r3
 8003246:	f200 8126 	bhi.w	8003496 <HAL_RCC_OscConfig+0x49e>
 800324a:	4b16      	ldr	r3, [pc, #88]	; (80032a4 <HAL_RCC_OscConfig+0x2ac>)
 800324c:	681a      	ldr	r2, [r3, #0]
 800324e:	f042 0208 	orr.w	r2, r2, #8
 8003252:	601a      	str	r2, [r3, #0]
 8003254:	681a      	ldr	r2, [r3, #0]
 8003256:	f022 02f0 	bic.w	r2, r2, #240	; 0xf0
 800325a:	4302      	orrs	r2, r0
 800325c:	601a      	str	r2, [r3, #0]
 800325e:	685a      	ldr	r2, [r3, #4]
 8003260:	69e1      	ldr	r1, [r4, #28]
 8003262:	f422 427f 	bic.w	r2, r2, #65280	; 0xff00
 8003266:	ea42 2201 	orr.w	r2, r2, r1, lsl #8
 800326a:	605a      	str	r2, [r3, #4]
 800326c:	2d00      	cmp	r5, #0
 800326e:	f000 8142 	beq.w	80034f6 <HAL_RCC_OscConfig+0x4fe>
 8003272:	f7ff fe67 	bl	8002f44 <HAL_RCC_GetSysClockFreq>
 8003276:	4b0b      	ldr	r3, [pc, #44]	; (80032a4 <HAL_RCC_OscConfig+0x2ac>)
 8003278:	4a0d      	ldr	r2, [pc, #52]	; (80032b0 <HAL_RCC_OscConfig+0x2b8>)
 800327a:	689b      	ldr	r3, [r3, #8]
 800327c:	f3c3 1303 	ubfx	r3, r3, #4, #4
 8003280:	5cd3      	ldrb	r3, [r2, r3]
 8003282:	4a0c      	ldr	r2, [pc, #48]	; (80032b4 <HAL_RCC_OscConfig+0x2bc>)
 8003284:	f003 031f 	and.w	r3, r3, #31
 8003288:	fa20 f303 	lsr.w	r3, r0, r3
 800328c:	6810      	ldr	r0, [r2, #0]
 800328e:	4a0a      	ldr	r2, [pc, #40]	; (80032b8 <HAL_RCC_OscConfig+0x2c0>)
 8003290:	6013      	str	r3, [r2, #0]
 8003292:	f7fe ff5d 	bl	8002150 <HAL_InitTick>
 8003296:	2800      	cmp	r0, #0
 8003298:	d169      	bne.n	800336e <HAL_RCC_OscConfig+0x376>
 800329a:	6823      	ldr	r3, [r4, #0]
 800329c:	07d9      	lsls	r1, r3, #31
 800329e:	f57f aeee 	bpl.w	800307e <HAL_RCC_OscConfig+0x86>
 80032a2:	e792      	b.n	80031ca <HAL_RCC_OscConfig+0x1d2>
 80032a4:	40021000 	.word	0x40021000
 80032a8:	40007000 	.word	0x40007000
 80032ac:	feeefffc 	.word	0xfeeefffc
 80032b0:	08007468 	.word	0x08007468
 80032b4:	2000018c 	.word	0x2000018c
 80032b8:	20000034 	.word	0x20000034
 80032bc:	69a3      	ldr	r3, [r4, #24]
 80032be:	2b00      	cmp	r3, #0
 80032c0:	d1b5      	bne.n	800322e <HAL_RCC_OscConfig+0x236>
 80032c2:	2001      	movs	r0, #1
 80032c4:	b003      	add	sp, #12
 80032c6:	e8bd 83f0 	ldmia.w	sp!, {r4, r5, r6, r7, r8, r9, pc}
 80032ca:	4e9b      	ldr	r6, [pc, #620]	; (8003538 <HAL_RCC_OscConfig+0x540>)
 80032cc:	6ae2      	ldr	r2, [r4, #44]	; 0x2c
 80032ce:	68f3      	ldr	r3, [r6, #12]
 80032d0:	f003 0103 	and.w	r1, r3, #3
 80032d4:	4291      	cmp	r1, r2
 80032d6:	f000 8133 	beq.w	8003540 <HAL_RCC_OscConfig+0x548>
 80032da:	2d0c      	cmp	r5, #12
 80032dc:	d0f1      	beq.n	80032c2 <HAL_RCC_OscConfig+0x2ca>
 80032de:	4d96      	ldr	r5, [pc, #600]	; (8003538 <HAL_RCC_OscConfig+0x540>)
 80032e0:	682b      	ldr	r3, [r5, #0]
 80032e2:	015f      	lsls	r7, r3, #5
 80032e4:	d4ed      	bmi.n	80032c2 <HAL_RCC_OscConfig+0x2ca>
 80032e6:	682b      	ldr	r3, [r5, #0]
 80032e8:	00de      	lsls	r6, r3, #3
 80032ea:	d4ea      	bmi.n	80032c2 <HAL_RCC_OscConfig+0x2ca>
 80032ec:	682b      	ldr	r3, [r5, #0]
 80032ee:	f023 7380 	bic.w	r3, r3, #16777216	; 0x1000000
 80032f2:	602b      	str	r3, [r5, #0]
 80032f4:	f7fe ff76 	bl	80021e4 <HAL_GetTick>
 80032f8:	4606      	mov	r6, r0
 80032fa:	e004      	b.n	8003306 <HAL_RCC_OscConfig+0x30e>
 80032fc:	f7fe ff72 	bl	80021e4 <HAL_GetTick>
 8003300:	1b80      	subs	r0, r0, r6
 8003302:	2802      	cmp	r0, #2
 8003304:	d87c      	bhi.n	8003400 <HAL_RCC_OscConfig+0x408>
 8003306:	682b      	ldr	r3, [r5, #0]
 8003308:	0198      	lsls	r0, r3, #6
 800330a:	d4f7      	bmi.n	80032fc <HAL_RCC_OscConfig+0x304>
 800330c:	68e9      	ldr	r1, [r5, #12]
 800330e:	4b8b      	ldr	r3, [pc, #556]	; (800353c <HAL_RCC_OscConfig+0x544>)
 8003310:	6ae2      	ldr	r2, [r4, #44]	; 0x2c
 8003312:	4e89      	ldr	r6, [pc, #548]	; (8003538 <HAL_RCC_OscConfig+0x540>)
 8003314:	400b      	ands	r3, r1
 8003316:	4313      	orrs	r3, r2
 8003318:	e9d4 210c 	ldrd	r2, r1, [r4, #48]	; 0x30
 800331c:	ea43 2301 	orr.w	r3, r3, r1, lsl #8
 8003320:	e9d4 010e 	ldrd	r0, r1, [r4, #56]	; 0x38
 8003324:	3a01      	subs	r2, #1
 8003326:	ea43 1302 	orr.w	r3, r3, r2, lsl #4
 800332a:	6c22      	ldr	r2, [r4, #64]	; 0x40
 800332c:	0900      	lsrs	r0, r0, #4
 800332e:	0849      	lsrs	r1, r1, #1
 8003330:	ea43 4340 	orr.w	r3, r3, r0, lsl #17
 8003334:	3901      	subs	r1, #1
 8003336:	0852      	lsrs	r2, r2, #1
 8003338:	ea43 5341 	orr.w	r3, r3, r1, lsl #21
 800333c:	3a01      	subs	r2, #1
 800333e:	ea43 6342 	orr.w	r3, r3, r2, lsl #25
 8003342:	60eb      	str	r3, [r5, #12]
 8003344:	682b      	ldr	r3, [r5, #0]
 8003346:	f043 7380 	orr.w	r3, r3, #16777216	; 0x1000000
 800334a:	602b      	str	r3, [r5, #0]
 800334c:	68eb      	ldr	r3, [r5, #12]
 800334e:	f043 7380 	orr.w	r3, r3, #16777216	; 0x1000000
 8003352:	60eb      	str	r3, [r5, #12]
 8003354:	f7fe ff46 	bl	80021e4 <HAL_GetTick>
 8003358:	4604      	mov	r4, r0
 800335a:	e004      	b.n	8003366 <HAL_RCC_OscConfig+0x36e>
 800335c:	f7fe ff42 	bl	80021e4 <HAL_GetTick>
 8003360:	1b00      	subs	r0, r0, r4
 8003362:	2802      	cmp	r0, #2
 8003364:	d84c      	bhi.n	8003400 <HAL_RCC_OscConfig+0x408>
 8003366:	6833      	ldr	r3, [r6, #0]
 8003368:	0199      	lsls	r1, r3, #6
 800336a:	d5f7      	bpl.n	800335c <HAL_RCC_OscConfig+0x364>
 800336c:	2000      	movs	r0, #0
 800336e:	b003      	add	sp, #12
 8003370:	e8bd 83f0 	ldmia.w	sp!, {r4, r5, r6, r7, r8, r9, pc}
 8003374:	2e03      	cmp	r6, #3
 8003376:	f47f af2e 	bne.w	80031d6 <HAL_RCC_OscConfig+0x1de>
 800337a:	4a6f      	ldr	r2, [pc, #444]	; (8003538 <HAL_RCC_OscConfig+0x540>)
 800337c:	6812      	ldr	r2, [r2, #0]
 800337e:	0392      	lsls	r2, r2, #14
 8003380:	f57f ae7d 	bpl.w	800307e <HAL_RCC_OscConfig+0x86>
 8003384:	6862      	ldr	r2, [r4, #4]
 8003386:	2a00      	cmp	r2, #0
 8003388:	f47f ae79 	bne.w	800307e <HAL_RCC_OscConfig+0x86>
 800338c:	e799      	b.n	80032c2 <HAL_RCC_OscConfig+0x2ca>
 800338e:	f8d6 3094 	ldr.w	r3, [r6, #148]	; 0x94
 8003392:	f023 0301 	bic.w	r3, r3, #1
 8003396:	f8c6 3094 	str.w	r3, [r6, #148]	; 0x94
 800339a:	f7fe ff23 	bl	80021e4 <HAL_GetTick>
 800339e:	4607      	mov	r7, r0
 80033a0:	e004      	b.n	80033ac <HAL_RCC_OscConfig+0x3b4>
 80033a2:	f7fe ff1f 	bl	80021e4 <HAL_GetTick>
 80033a6:	1bc0      	subs	r0, r0, r7
 80033a8:	2802      	cmp	r0, #2
 80033aa:	d829      	bhi.n	8003400 <HAL_RCC_OscConfig+0x408>
 80033ac:	f8d6 3094 	ldr.w	r3, [r6, #148]	; 0x94
 80033b0:	079b      	lsls	r3, r3, #30
 80033b2:	d4f6      	bmi.n	80033a2 <HAL_RCC_OscConfig+0x3aa>
 80033b4:	e6a4      	b.n	8003100 <HAL_RCC_OscConfig+0x108>
 80033b6:	2e02      	cmp	r6, #2
 80033b8:	f47f ae69 	bne.w	800308e <HAL_RCC_OscConfig+0x96>
 80033bc:	4a5e      	ldr	r2, [pc, #376]	; (8003538 <HAL_RCC_OscConfig+0x540>)
 80033be:	6812      	ldr	r2, [r2, #0]
 80033c0:	0552      	lsls	r2, r2, #21
 80033c2:	d503      	bpl.n	80033cc <HAL_RCC_OscConfig+0x3d4>
 80033c4:	68e2      	ldr	r2, [r4, #12]
 80033c6:	2a00      	cmp	r2, #0
 80033c8:	f43f af7b 	beq.w	80032c2 <HAL_RCC_OscConfig+0x2ca>
 80033cc:	495a      	ldr	r1, [pc, #360]	; (8003538 <HAL_RCC_OscConfig+0x540>)
 80033ce:	6920      	ldr	r0, [r4, #16]
 80033d0:	684a      	ldr	r2, [r1, #4]
 80033d2:	f022 52f8 	bic.w	r2, r2, #520093696	; 0x1f000000
 80033d6:	ea42 6200 	orr.w	r2, r2, r0, lsl #24
 80033da:	604a      	str	r2, [r1, #4]
 80033dc:	e675      	b.n	80030ca <HAL_RCC_OscConfig+0xd2>
 80033de:	683b      	ldr	r3, [r7, #0]
 80033e0:	f023 0301 	bic.w	r3, r3, #1
 80033e4:	603b      	str	r3, [r7, #0]
 80033e6:	f7fe fefd 	bl	80021e4 <HAL_GetTick>
 80033ea:	4680      	mov	r8, r0
 80033ec:	683b      	ldr	r3, [r7, #0]
 80033ee:	0798      	lsls	r0, r3, #30
 80033f0:	f57f af53 	bpl.w	800329a <HAL_RCC_OscConfig+0x2a2>
 80033f4:	f7fe fef6 	bl	80021e4 <HAL_GetTick>
 80033f8:	eba0 0008 	sub.w	r0, r0, r8
 80033fc:	2802      	cmp	r0, #2
 80033fe:	d9f5      	bls.n	80033ec <HAL_RCC_OscConfig+0x3f4>
 8003400:	2003      	movs	r0, #3
 8003402:	b003      	add	sp, #12
 8003404:	e8bd 83f0 	ldmia.w	sp!, {r4, r5, r6, r7, r8, r9, pc}
 8003408:	4a4b      	ldr	r2, [pc, #300]	; (8003538 <HAL_RCC_OscConfig+0x540>)
 800340a:	6813      	ldr	r3, [r2, #0]
 800340c:	f443 3380 	orr.w	r3, r3, #65536	; 0x10000
 8003410:	6013      	str	r3, [r2, #0]
 8003412:	f7fe fee7 	bl	80021e4 <HAL_GetTick>
 8003416:	f8df 8120 	ldr.w	r8, [pc, #288]	; 8003538 <HAL_RCC_OscConfig+0x540>
 800341a:	4607      	mov	r7, r0
 800341c:	e004      	b.n	8003428 <HAL_RCC_OscConfig+0x430>
 800341e:	f7fe fee1 	bl	80021e4 <HAL_GetTick>
 8003422:	1bc0      	subs	r0, r0, r7
 8003424:	2864      	cmp	r0, #100	; 0x64
 8003426:	d8eb      	bhi.n	8003400 <HAL_RCC_OscConfig+0x408>
 8003428:	f8d8 3000 	ldr.w	r3, [r8]
 800342c:	039b      	lsls	r3, r3, #14
 800342e:	d5f6      	bpl.n	800341e <HAL_RCC_OscConfig+0x426>
 8003430:	e6f4      	b.n	800321c <HAL_RCC_OscConfig+0x224>
 8003432:	2600      	movs	r6, #0
 8003434:	e676      	b.n	8003124 <HAL_RCC_OscConfig+0x12c>
 8003436:	6833      	ldr	r3, [r6, #0]
 8003438:	f423 7380 	bic.w	r3, r3, #256	; 0x100
 800343c:	6033      	str	r3, [r6, #0]
 800343e:	f7fe fed1 	bl	80021e4 <HAL_GetTick>
 8003442:	4607      	mov	r7, r0
 8003444:	e004      	b.n	8003450 <HAL_RCC_OscConfig+0x458>
 8003446:	f7fe fecd 	bl	80021e4 <HAL_GetTick>
 800344a:	1bc0      	subs	r0, r0, r7
 800344c:	2802      	cmp	r0, #2
 800344e:	d8d7      	bhi.n	8003400 <HAL_RCC_OscConfig+0x408>
 8003450:	6833      	ldr	r3, [r6, #0]
 8003452:	0558      	lsls	r0, r3, #21
 8003454:	d4f7      	bmi.n	8003446 <HAL_RCC_OscConfig+0x44e>
 8003456:	6823      	ldr	r3, [r4, #0]
 8003458:	e637      	b.n	80030ca <HAL_RCC_OscConfig+0xd2>
 800345a:	4a37      	ldr	r2, [pc, #220]	; (8003538 <HAL_RCC_OscConfig+0x540>)
 800345c:	f8d2 3090 	ldr.w	r3, [r2, #144]	; 0x90
 8003460:	f043 0301 	orr.w	r3, r3, #1
 8003464:	f8c2 3090 	str.w	r3, [r2, #144]	; 0x90
 8003468:	f7fe febc 	bl	80021e4 <HAL_GetTick>
 800346c:	f8df 80c8 	ldr.w	r8, [pc, #200]	; 8003538 <HAL_RCC_OscConfig+0x540>
 8003470:	4607      	mov	r7, r0
 8003472:	f241 3988 	movw	r9, #5000	; 0x1388
 8003476:	e004      	b.n	8003482 <HAL_RCC_OscConfig+0x48a>
 8003478:	f7fe feb4 	bl	80021e4 <HAL_GetTick>
 800347c:	1bc0      	subs	r0, r0, r7
 800347e:	4548      	cmp	r0, r9
 8003480:	d8be      	bhi.n	8003400 <HAL_RCC_OscConfig+0x408>
 8003482:	f8d8 3090 	ldr.w	r3, [r8, #144]	; 0x90
 8003486:	079a      	lsls	r2, r3, #30
 8003488:	d5f6      	bpl.n	8003478 <HAL_RCC_OscConfig+0x480>
 800348a:	2e00      	cmp	r6, #0
 800348c:	f43f ae7a 	beq.w	8003184 <HAL_RCC_OscConfig+0x18c>
 8003490:	e02b      	b.n	80034ea <HAL_RCC_OscConfig+0x4f2>
 8003492:	2001      	movs	r0, #1
 8003494:	4770      	bx	lr
 8003496:	f7ff fd0f 	bl	8002eb8 <RCC_SetFlashLatencyFromMSIRange>
 800349a:	2800      	cmp	r0, #0
 800349c:	f47f af11 	bne.w	80032c2 <HAL_RCC_OscConfig+0x2ca>
 80034a0:	4b25      	ldr	r3, [pc, #148]	; (8003538 <HAL_RCC_OscConfig+0x540>)
 80034a2:	681a      	ldr	r2, [r3, #0]
 80034a4:	f042 0208 	orr.w	r2, r2, #8
 80034a8:	601a      	str	r2, [r3, #0]
 80034aa:	681a      	ldr	r2, [r3, #0]
 80034ac:	6a21      	ldr	r1, [r4, #32]
 80034ae:	f022 02f0 	bic.w	r2, r2, #240	; 0xf0
 80034b2:	430a      	orrs	r2, r1
 80034b4:	601a      	str	r2, [r3, #0]
 80034b6:	685a      	ldr	r2, [r3, #4]
 80034b8:	69e1      	ldr	r1, [r4, #28]
 80034ba:	f422 427f 	bic.w	r2, r2, #65280	; 0xff00
 80034be:	ea42 2201 	orr.w	r2, r2, r1, lsl #8
 80034c2:	605a      	str	r2, [r3, #4]
 80034c4:	e6d5      	b.n	8003272 <HAL_RCC_OscConfig+0x27a>
 80034c6:	683b      	ldr	r3, [r7, #0]
 80034c8:	f443 7380 	orr.w	r3, r3, #256	; 0x100
 80034cc:	603b      	str	r3, [r7, #0]
 80034ce:	f7fe fe89 	bl	80021e4 <HAL_GetTick>
 80034d2:	4680      	mov	r8, r0
 80034d4:	683b      	ldr	r3, [r7, #0]
 80034d6:	05d9      	lsls	r1, r3, #23
 80034d8:	f53f ae29 	bmi.w	800312e <HAL_RCC_OscConfig+0x136>
 80034dc:	f7fe fe82 	bl	80021e4 <HAL_GetTick>
 80034e0:	eba0 0008 	sub.w	r0, r0, r8
 80034e4:	2802      	cmp	r0, #2
 80034e6:	d9f5      	bls.n	80034d4 <HAL_RCC_OscConfig+0x4dc>
 80034e8:	e78a      	b.n	8003400 <HAL_RCC_OscConfig+0x408>
 80034ea:	4a13      	ldr	r2, [pc, #76]	; (8003538 <HAL_RCC_OscConfig+0x540>)
 80034ec:	6d93      	ldr	r3, [r2, #88]	; 0x58
 80034ee:	f023 5380 	bic.w	r3, r3, #268435456	; 0x10000000
 80034f2:	6593      	str	r3, [r2, #88]	; 0x58
 80034f4:	e646      	b.n	8003184 <HAL_RCC_OscConfig+0x18c>
 80034f6:	f7ff fcdf 	bl	8002eb8 <RCC_SetFlashLatencyFromMSIRange>
 80034fa:	2800      	cmp	r0, #0
 80034fc:	f43f aeb9 	beq.w	8003272 <HAL_RCC_OscConfig+0x27a>
 8003500:	e6df      	b.n	80032c2 <HAL_RCC_OscConfig+0x2ca>
 8003502:	f103 4380 	add.w	r3, r3, #1073741824	; 0x40000000
 8003506:	f5a3 333c 	sub.w	r3, r3, #192512	; 0x2f000
 800350a:	681a      	ldr	r2, [r3, #0]
 800350c:	f442 2280 	orr.w	r2, r2, #262144	; 0x40000
 8003510:	601a      	str	r2, [r3, #0]
 8003512:	681a      	ldr	r2, [r3, #0]
 8003514:	f442 3280 	orr.w	r2, r2, #65536	; 0x10000
 8003518:	601a      	str	r2, [r3, #0]
 800351a:	e77a      	b.n	8003412 <HAL_RCC_OscConfig+0x41a>
 800351c:	4b06      	ldr	r3, [pc, #24]	; (8003538 <HAL_RCC_OscConfig+0x540>)
 800351e:	f8d3 2090 	ldr.w	r2, [r3, #144]	; 0x90
 8003522:	f042 0204 	orr.w	r2, r2, #4
 8003526:	f8c3 2090 	str.w	r2, [r3, #144]	; 0x90
 800352a:	f8d3 2090 	ldr.w	r2, [r3, #144]	; 0x90
 800352e:	f042 0201 	orr.w	r2, r2, #1
 8003532:	f8c3 2090 	str.w	r2, [r3, #144]	; 0x90
 8003536:	e797      	b.n	8003468 <HAL_RCC_OscConfig+0x470>
 8003538:	40021000 	.word	0x40021000
 800353c:	f99d808c 	.word	0xf99d808c
 8003540:	6b21      	ldr	r1, [r4, #48]	; 0x30
 8003542:	f003 0270 	and.w	r2, r3, #112	; 0x70
 8003546:	3901      	subs	r1, #1
 8003548:	ebb2 1f01 	cmp.w	r2, r1, lsl #4
 800354c:	f47f aec5 	bne.w	80032da <HAL_RCC_OscConfig+0x2e2>
 8003550:	6b61      	ldr	r1, [r4, #52]	; 0x34
 8003552:	f403 42fe 	and.w	r2, r3, #32512	; 0x7f00
 8003556:	ebb2 2f01 	cmp.w	r2, r1, lsl #8
 800355a:	f47f aebe 	bne.w	80032da <HAL_RCC_OscConfig+0x2e2>
 800355e:	6ba2      	ldr	r2, [r4, #56]	; 0x38
 8003560:	3a07      	subs	r2, #7
 8003562:	f403 3100 	and.w	r1, r3, #131072	; 0x20000
 8003566:	bf18      	it	ne
 8003568:	2201      	movne	r2, #1
 800356a:	4291      	cmp	r1, r2
 800356c:	f47f aeb5 	bne.w	80032da <HAL_RCC_OscConfig+0x2e2>
 8003570:	6be2      	ldr	r2, [r4, #60]	; 0x3c
 8003572:	0852      	lsrs	r2, r2, #1
 8003574:	f403 01c0 	and.w	r1, r3, #6291456	; 0x600000
 8003578:	3a01      	subs	r2, #1
 800357a:	ebb1 5f42 	cmp.w	r1, r2, lsl #21
 800357e:	f47f aeac 	bne.w	80032da <HAL_RCC_OscConfig+0x2e2>
 8003582:	6c22      	ldr	r2, [r4, #64]	; 0x40
 8003584:	0852      	lsrs	r2, r2, #1
 8003586:	f003 63c0 	and.w	r3, r3, #100663296	; 0x6000000
 800358a:	3a01      	subs	r2, #1
 800358c:	ebb3 6f42 	cmp.w	r3, r2, lsl #25
 8003590:	f47f aea3 	bne.w	80032da <HAL_RCC_OscConfig+0x2e2>
 8003594:	6833      	ldr	r3, [r6, #0]
 8003596:	019a      	lsls	r2, r3, #6
 8003598:	f53f aee8 	bmi.w	800336c <HAL_RCC_OscConfig+0x374>
 800359c:	6833      	ldr	r3, [r6, #0]
 800359e:	f043 7380 	orr.w	r3, r3, #16777216	; 0x1000000
 80035a2:	6033      	str	r3, [r6, #0]
 80035a4:	68f3      	ldr	r3, [r6, #12]
 80035a6:	f043 7380 	orr.w	r3, r3, #16777216	; 0x1000000
 80035aa:	60f3      	str	r3, [r6, #12]
 80035ac:	f7fe fe1a 	bl	80021e4 <HAL_GetTick>
 80035b0:	4604      	mov	r4, r0
 80035b2:	e005      	b.n	80035c0 <HAL_RCC_OscConfig+0x5c8>
 80035b4:	f7fe fe16 	bl	80021e4 <HAL_GetTick>
 80035b8:	1b00      	subs	r0, r0, r4
 80035ba:	2802      	cmp	r0, #2
 80035bc:	f63f af20 	bhi.w	8003400 <HAL_RCC_OscConfig+0x408>
 80035c0:	6833      	ldr	r3, [r6, #0]
 80035c2:	019b      	lsls	r3, r3, #6
 80035c4:	d5f6      	bpl.n	80035b4 <HAL_RCC_OscConfig+0x5bc>
 80035c6:	e6d1      	b.n	800336c <HAL_RCC_OscConfig+0x374>

080035c8 <HAL_RCC_ClockConfig>:
 80035c8:	2800      	cmp	r0, #0
 80035ca:	f000 809f 	beq.w	800370c <HAL_RCC_ClockConfig+0x144>
 80035ce:	4a53      	ldr	r2, [pc, #332]	; (800371c <HAL_RCC_ClockConfig+0x154>)
 80035d0:	6813      	ldr	r3, [r2, #0]
 80035d2:	f003 0307 	and.w	r3, r3, #7
 80035d6:	428b      	cmp	r3, r1
 80035d8:	e92d 41f0 	stmdb	sp!, {r4, r5, r6, r7, r8, lr}
 80035dc:	460d      	mov	r5, r1
 80035de:	4604      	mov	r4, r0
 80035e0:	d20c      	bcs.n	80035fc <HAL_RCC_ClockConfig+0x34>
 80035e2:	6813      	ldr	r3, [r2, #0]
 80035e4:	f023 0307 	bic.w	r3, r3, #7
 80035e8:	430b      	orrs	r3, r1
 80035ea:	6013      	str	r3, [r2, #0]
 80035ec:	6813      	ldr	r3, [r2, #0]
 80035ee:	f003 0307 	and.w	r3, r3, #7
 80035f2:	428b      	cmp	r3, r1
 80035f4:	d002      	beq.n	80035fc <HAL_RCC_ClockConfig+0x34>
 80035f6:	2001      	movs	r0, #1
 80035f8:	e8bd 81f0 	ldmia.w	sp!, {r4, r5, r6, r7, r8, pc}
 80035fc:	6823      	ldr	r3, [r4, #0]
 80035fe:	079e      	lsls	r6, r3, #30
 8003600:	d571      	bpl.n	80036e6 <HAL_RCC_ClockConfig+0x11e>
 8003602:	4847      	ldr	r0, [pc, #284]	; (8003720 <HAL_RCC_ClockConfig+0x158>)
 8003604:	68a1      	ldr	r1, [r4, #8]
 8003606:	6882      	ldr	r2, [r0, #8]
 8003608:	f002 02f0 	and.w	r2, r2, #240	; 0xf0
 800360c:	4291      	cmp	r1, r2
 800360e:	d904      	bls.n	800361a <HAL_RCC_ClockConfig+0x52>
 8003610:	6882      	ldr	r2, [r0, #8]
 8003612:	f022 02f0 	bic.w	r2, r2, #240	; 0xf0
 8003616:	430a      	orrs	r2, r1
 8003618:	6082      	str	r2, [r0, #8]
 800361a:	07da      	lsls	r2, r3, #31
 800361c:	d526      	bpl.n	800366c <HAL_RCC_ClockConfig+0xa4>
 800361e:	6862      	ldr	r2, [r4, #4]
 8003620:	4b3f      	ldr	r3, [pc, #252]	; (8003720 <HAL_RCC_ClockConfig+0x158>)
 8003622:	2a03      	cmp	r2, #3
 8003624:	681b      	ldr	r3, [r3, #0]
 8003626:	d065      	beq.n	80036f4 <HAL_RCC_ClockConfig+0x12c>
 8003628:	2a02      	cmp	r2, #2
 800362a:	d06c      	beq.n	8003706 <HAL_RCC_ClockConfig+0x13e>
 800362c:	2a00      	cmp	r2, #0
 800362e:	d171      	bne.n	8003714 <HAL_RCC_ClockConfig+0x14c>
 8003630:	079b      	lsls	r3, r3, #30
 8003632:	d5e0      	bpl.n	80035f6 <HAL_RCC_ClockConfig+0x2e>
 8003634:	4e3a      	ldr	r6, [pc, #232]	; (8003720 <HAL_RCC_ClockConfig+0x158>)
 8003636:	68b3      	ldr	r3, [r6, #8]
 8003638:	f023 0303 	bic.w	r3, r3, #3
 800363c:	4313      	orrs	r3, r2
 800363e:	60b3      	str	r3, [r6, #8]
 8003640:	f7fe fdd0 	bl	80021e4 <HAL_GetTick>
 8003644:	f241 3888 	movw	r8, #5000	; 0x1388
 8003648:	4607      	mov	r7, r0
 800364a:	e004      	b.n	8003656 <HAL_RCC_ClockConfig+0x8e>
 800364c:	f7fe fdca 	bl	80021e4 <HAL_GetTick>
 8003650:	1bc0      	subs	r0, r0, r7
 8003652:	4540      	cmp	r0, r8
 8003654:	d85c      	bhi.n	8003710 <HAL_RCC_ClockConfig+0x148>
 8003656:	68b3      	ldr	r3, [r6, #8]
 8003658:	6862      	ldr	r2, [r4, #4]
 800365a:	f003 030c 	and.w	r3, r3, #12
 800365e:	ebb3 0f82 	cmp.w	r3, r2, lsl #2
 8003662:	d1f3      	bne.n	800364c <HAL_RCC_ClockConfig+0x84>
 8003664:	6823      	ldr	r3, [r4, #0]
 8003666:	079e      	lsls	r6, r3, #30
 8003668:	d506      	bpl.n	8003678 <HAL_RCC_ClockConfig+0xb0>
 800366a:	68a1      	ldr	r1, [r4, #8]
 800366c:	482c      	ldr	r0, [pc, #176]	; (8003720 <HAL_RCC_ClockConfig+0x158>)
 800366e:	6882      	ldr	r2, [r0, #8]
 8003670:	f002 02f0 	and.w	r2, r2, #240	; 0xf0
 8003674:	428a      	cmp	r2, r1
 8003676:	d840      	bhi.n	80036fa <HAL_RCC_ClockConfig+0x132>
 8003678:	4928      	ldr	r1, [pc, #160]	; (800371c <HAL_RCC_ClockConfig+0x154>)
 800367a:	680a      	ldr	r2, [r1, #0]
 800367c:	f002 0207 	and.w	r2, r2, #7
 8003680:	42aa      	cmp	r2, r5
 8003682:	d909      	bls.n	8003698 <HAL_RCC_ClockConfig+0xd0>
 8003684:	680a      	ldr	r2, [r1, #0]
 8003686:	f022 0207 	bic.w	r2, r2, #7
 800368a:	432a      	orrs	r2, r5
 800368c:	600a      	str	r2, [r1, #0]
 800368e:	680a      	ldr	r2, [r1, #0]
 8003690:	f002 0207 	and.w	r2, r2, #7
 8003694:	42aa      	cmp	r2, r5
 8003696:	d1ae      	bne.n	80035f6 <HAL_RCC_ClockConfig+0x2e>
 8003698:	075d      	lsls	r5, r3, #29
 800369a:	d506      	bpl.n	80036aa <HAL_RCC_ClockConfig+0xe2>
 800369c:	4920      	ldr	r1, [pc, #128]	; (8003720 <HAL_RCC_ClockConfig+0x158>)
 800369e:	68e0      	ldr	r0, [r4, #12]
 80036a0:	688a      	ldr	r2, [r1, #8]
 80036a2:	f422 62e0 	bic.w	r2, r2, #1792	; 0x700
 80036a6:	4302      	orrs	r2, r0
 80036a8:	608a      	str	r2, [r1, #8]
 80036aa:	0718      	lsls	r0, r3, #28
 80036ac:	d507      	bpl.n	80036be <HAL_RCC_ClockConfig+0xf6>
 80036ae:	4a1c      	ldr	r2, [pc, #112]	; (8003720 <HAL_RCC_ClockConfig+0x158>)
 80036b0:	6921      	ldr	r1, [r4, #16]
 80036b2:	6893      	ldr	r3, [r2, #8]
 80036b4:	f423 5360 	bic.w	r3, r3, #14336	; 0x3800
 80036b8:	ea43 03c1 	orr.w	r3, r3, r1, lsl #3
 80036bc:	6093      	str	r3, [r2, #8]
 80036be:	f7ff fc41 	bl	8002f44 <HAL_RCC_GetSysClockFreq>
 80036c2:	4a17      	ldr	r2, [pc, #92]	; (8003720 <HAL_RCC_ClockConfig+0x158>)
 80036c4:	4c17      	ldr	r4, [pc, #92]	; (8003724 <HAL_RCC_ClockConfig+0x15c>)
 80036c6:	6892      	ldr	r2, [r2, #8]
 80036c8:	4917      	ldr	r1, [pc, #92]	; (8003728 <HAL_RCC_ClockConfig+0x160>)
 80036ca:	f3c2 1203 	ubfx	r2, r2, #4, #4
 80036ce:	4603      	mov	r3, r0
 80036d0:	5ca2      	ldrb	r2, [r4, r2]
 80036d2:	4816      	ldr	r0, [pc, #88]	; (800372c <HAL_RCC_ClockConfig+0x164>)
 80036d4:	f002 021f 	and.w	r2, r2, #31
 80036d8:	40d3      	lsrs	r3, r2
 80036da:	e8bd 41f0 	ldmia.w	sp!, {r4, r5, r6, r7, r8, lr}
 80036de:	6800      	ldr	r0, [r0, #0]
 80036e0:	600b      	str	r3, [r1, #0]
 80036e2:	f7fe bd35 	b.w	8002150 <HAL_InitTick>
 80036e6:	07d9      	lsls	r1, r3, #31
 80036e8:	d5c6      	bpl.n	8003678 <HAL_RCC_ClockConfig+0xb0>
 80036ea:	6862      	ldr	r2, [r4, #4]
 80036ec:	4b0c      	ldr	r3, [pc, #48]	; (8003720 <HAL_RCC_ClockConfig+0x158>)
 80036ee:	2a03      	cmp	r2, #3
 80036f0:	681b      	ldr	r3, [r3, #0]
 80036f2:	d199      	bne.n	8003628 <HAL_RCC_ClockConfig+0x60>
 80036f4:	0198      	lsls	r0, r3, #6
 80036f6:	d49d      	bmi.n	8003634 <HAL_RCC_ClockConfig+0x6c>
 80036f8:	e77d      	b.n	80035f6 <HAL_RCC_ClockConfig+0x2e>
 80036fa:	6882      	ldr	r2, [r0, #8]
 80036fc:	f022 02f0 	bic.w	r2, r2, #240	; 0xf0
 8003700:	430a      	orrs	r2, r1
 8003702:	6082      	str	r2, [r0, #8]
 8003704:	e7b8      	b.n	8003678 <HAL_RCC_ClockConfig+0xb0>
 8003706:	0399      	lsls	r1, r3, #14
 8003708:	d494      	bmi.n	8003634 <HAL_RCC_ClockConfig+0x6c>
 800370a:	e774      	b.n	80035f6 <HAL_RCC_ClockConfig+0x2e>
 800370c:	2001      	movs	r0, #1
 800370e:	4770      	bx	lr
 8003710:	2003      	movs	r0, #3
 8003712:	e771      	b.n	80035f8 <HAL_RCC_ClockConfig+0x30>
 8003714:	055f      	lsls	r7, r3, #21
 8003716:	f57f af6e 	bpl.w	80035f6 <HAL_RCC_ClockConfig+0x2e>
 800371a:	e78b      	b.n	8003634 <HAL_RCC_ClockConfig+0x6c>
 800371c:	40022000 	.word	0x40022000
 8003720:	40021000 	.word	0x40021000
 8003724:	08007468 	.word	0x08007468
 8003728:	20000034 	.word	0x20000034
 800372c:	2000018c 	.word	0x2000018c

08003730 <HAL_RCC_GetPCLK1Freq>:
 8003730:	4b05      	ldr	r3, [pc, #20]	; (8003748 <HAL_RCC_GetPCLK1Freq+0x18>)
 8003732:	4a06      	ldr	r2, [pc, #24]	; (800374c <HAL_RCC_GetPCLK1Freq+0x1c>)
 8003734:	689b      	ldr	r3, [r3, #8]
 8003736:	4906      	ldr	r1, [pc, #24]	; (8003750 <HAL_RCC_GetPCLK1Freq+0x20>)
 8003738:	f3c3 2302 	ubfx	r3, r3, #8, #3
 800373c:	6808      	ldr	r0, [r1, #0]
 800373e:	5cd3      	ldrb	r3, [r2, r3]
 8003740:	f003 031f 	and.w	r3, r3, #31
 8003744:	40d8      	lsrs	r0, r3
 8003746:	4770      	bx	lr
 8003748:	40021000 	.word	0x40021000
 800374c:	08007478 	.word	0x08007478
 8003750:	20000034 	.word	0x20000034

08003754 <HAL_RCC_GetPCLK2Freq>:
 8003754:	4b05      	ldr	r3, [pc, #20]	; (800376c <HAL_RCC_GetPCLK2Freq+0x18>)
 8003756:	4a06      	ldr	r2, [pc, #24]	; (8003770 <HAL_RCC_GetPCLK2Freq+0x1c>)
 8003758:	689b      	ldr	r3, [r3, #8]
 800375a:	4906      	ldr	r1, [pc, #24]	; (8003774 <HAL_RCC_GetPCLK2Freq+0x20>)
 800375c:	f3c3 23c2 	ubfx	r3, r3, #11, #3
 8003760:	6808      	ldr	r0, [r1, #0]
 8003762:	5cd3      	ldrb	r3, [r2, r3]
 8003764:	f003 031f 	and.w	r3, r3, #31
 8003768:	40d8      	lsrs	r0, r3
 800376a:	4770      	bx	lr
 800376c:	40021000 	.word	0x40021000
 8003770:	08007478 	.word	0x08007478
 8003774:	20000034 	.word	0x20000034

08003778 <RCCEx_PLLSAI1_Config>:
 8003778:	b5f8      	push	{r3, r4, r5, r6, r7, lr}
 800377a:	4b47      	ldr	r3, [pc, #284]	; (8003898 <RCCEx_PLLSAI1_Config+0x120>)
 800377c:	68da      	ldr	r2, [r3, #12]
 800377e:	0792      	lsls	r2, r2, #30
 8003780:	4604      	mov	r4, r0
 8003782:	460f      	mov	r7, r1
 8003784:	d007      	beq.n	8003796 <RCCEx_PLLSAI1_Config+0x1e>
 8003786:	68da      	ldr	r2, [r3, #12]
 8003788:	6801      	ldr	r1, [r0, #0]
 800378a:	f002 0203 	and.w	r2, r2, #3
 800378e:	428a      	cmp	r2, r1
 8003790:	d04c      	beq.n	800382c <RCCEx_PLLSAI1_Config+0xb4>
 8003792:	2001      	movs	r0, #1
 8003794:	bdf8      	pop	{r3, r4, r5, r6, r7, pc}
 8003796:	6800      	ldr	r0, [r0, #0]
 8003798:	2802      	cmp	r0, #2
 800379a:	d058      	beq.n	800384e <RCCEx_PLLSAI1_Config+0xd6>
 800379c:	2803      	cmp	r0, #3
 800379e:	d04f      	beq.n	8003840 <RCCEx_PLLSAI1_Config+0xc8>
 80037a0:	2801      	cmp	r0, #1
 80037a2:	d1f6      	bne.n	8003792 <RCCEx_PLLSAI1_Config+0x1a>
 80037a4:	681b      	ldr	r3, [r3, #0]
 80037a6:	079b      	lsls	r3, r3, #30
 80037a8:	d5f4      	bpl.n	8003794 <RCCEx_PLLSAI1_Config+0x1c>
 80037aa:	493b      	ldr	r1, [pc, #236]	; (8003898 <RCCEx_PLLSAI1_Config+0x120>)
 80037ac:	6862      	ldr	r2, [r4, #4]
 80037ae:	68cb      	ldr	r3, [r1, #12]
 80037b0:	f023 0373 	bic.w	r3, r3, #115	; 0x73
 80037b4:	4303      	orrs	r3, r0
 80037b6:	3a01      	subs	r2, #1
 80037b8:	ea43 1302 	orr.w	r3, r3, r2, lsl #4
 80037bc:	60cb      	str	r3, [r1, #12]
 80037be:	4d36      	ldr	r5, [pc, #216]	; (8003898 <RCCEx_PLLSAI1_Config+0x120>)
 80037c0:	682b      	ldr	r3, [r5, #0]
 80037c2:	f023 6380 	bic.w	r3, r3, #67108864	; 0x4000000
 80037c6:	602b      	str	r3, [r5, #0]
 80037c8:	f7fe fd0c 	bl	80021e4 <HAL_GetTick>
 80037cc:	4606      	mov	r6, r0
 80037ce:	e004      	b.n	80037da <RCCEx_PLLSAI1_Config+0x62>
 80037d0:	f7fe fd08 	bl	80021e4 <HAL_GetTick>
 80037d4:	1b83      	subs	r3, r0, r6
 80037d6:	2b02      	cmp	r3, #2
 80037d8:	d83d      	bhi.n	8003856 <RCCEx_PLLSAI1_Config+0xde>
 80037da:	682b      	ldr	r3, [r5, #0]
 80037dc:	011a      	lsls	r2, r3, #4
 80037de:	d4f7      	bmi.n	80037d0 <RCCEx_PLLSAI1_Config+0x58>
 80037e0:	2f00      	cmp	r7, #0
 80037e2:	d13a      	bne.n	800385a <RCCEx_PLLSAI1_Config+0xe2>
 80037e4:	692b      	ldr	r3, [r5, #16]
 80037e6:	e9d4 1202 	ldrd	r1, r2, [r4, #8]
 80037ea:	f423 331f 	bic.w	r3, r3, #162816	; 0x27c00
 80037ee:	f423 7340 	bic.w	r3, r3, #768	; 0x300
 80037f2:	ea43 2301 	orr.w	r3, r3, r1, lsl #8
 80037f6:	0912      	lsrs	r2, r2, #4
 80037f8:	ea43 4342 	orr.w	r3, r3, r2, lsl #17
 80037fc:	612b      	str	r3, [r5, #16]
 80037fe:	4d26      	ldr	r5, [pc, #152]	; (8003898 <RCCEx_PLLSAI1_Config+0x120>)
 8003800:	682b      	ldr	r3, [r5, #0]
 8003802:	f043 6380 	orr.w	r3, r3, #67108864	; 0x4000000
 8003806:	602b      	str	r3, [r5, #0]
 8003808:	f7fe fcec 	bl	80021e4 <HAL_GetTick>
 800380c:	4606      	mov	r6, r0
 800380e:	e004      	b.n	800381a <RCCEx_PLLSAI1_Config+0xa2>
 8003810:	f7fe fce8 	bl	80021e4 <HAL_GetTick>
 8003814:	1b83      	subs	r3, r0, r6
 8003816:	2b02      	cmp	r3, #2
 8003818:	d81d      	bhi.n	8003856 <RCCEx_PLLSAI1_Config+0xde>
 800381a:	682b      	ldr	r3, [r5, #0]
 800381c:	011b      	lsls	r3, r3, #4
 800381e:	d5f7      	bpl.n	8003810 <RCCEx_PLLSAI1_Config+0x98>
 8003820:	692b      	ldr	r3, [r5, #16]
 8003822:	69a2      	ldr	r2, [r4, #24]
 8003824:	4313      	orrs	r3, r2
 8003826:	2000      	movs	r0, #0
 8003828:	612b      	str	r3, [r5, #16]
 800382a:	bdf8      	pop	{r3, r4, r5, r6, r7, pc}
 800382c:	2a00      	cmp	r2, #0
 800382e:	d0b0      	beq.n	8003792 <RCCEx_PLLSAI1_Config+0x1a>
 8003830:	68db      	ldr	r3, [r3, #12]
 8003832:	6842      	ldr	r2, [r0, #4]
 8003834:	f3c3 1302 	ubfx	r3, r3, #4, #3
 8003838:	3301      	adds	r3, #1
 800383a:	4293      	cmp	r3, r2
 800383c:	d1a9      	bne.n	8003792 <RCCEx_PLLSAI1_Config+0x1a>
 800383e:	e7be      	b.n	80037be <RCCEx_PLLSAI1_Config+0x46>
 8003840:	681a      	ldr	r2, [r3, #0]
 8003842:	0395      	lsls	r5, r2, #14
 8003844:	d4b1      	bmi.n	80037aa <RCCEx_PLLSAI1_Config+0x32>
 8003846:	681b      	ldr	r3, [r3, #0]
 8003848:	0359      	lsls	r1, r3, #13
 800384a:	d5a2      	bpl.n	8003792 <RCCEx_PLLSAI1_Config+0x1a>
 800384c:	e7ad      	b.n	80037aa <RCCEx_PLLSAI1_Config+0x32>
 800384e:	681b      	ldr	r3, [r3, #0]
 8003850:	055e      	lsls	r6, r3, #21
 8003852:	d59e      	bpl.n	8003792 <RCCEx_PLLSAI1_Config+0x1a>
 8003854:	e7a9      	b.n	80037aa <RCCEx_PLLSAI1_Config+0x32>
 8003856:	2003      	movs	r0, #3
 8003858:	bdf8      	pop	{r3, r4, r5, r6, r7, pc}
 800385a:	2f01      	cmp	r7, #1
 800385c:	692b      	ldr	r3, [r5, #16]
 800385e:	d00d      	beq.n	800387c <RCCEx_PLLSAI1_Config+0x104>
 8003860:	6962      	ldr	r2, [r4, #20]
 8003862:	68a1      	ldr	r1, [r4, #8]
 8003864:	f023 63c0 	bic.w	r3, r3, #100663296	; 0x6000000
 8003868:	0852      	lsrs	r2, r2, #1
 800386a:	f423 43fe 	bic.w	r3, r3, #32512	; 0x7f00
 800386e:	3a01      	subs	r2, #1
 8003870:	ea43 2301 	orr.w	r3, r3, r1, lsl #8
 8003874:	ea43 6342 	orr.w	r3, r3, r2, lsl #25
 8003878:	612b      	str	r3, [r5, #16]
 800387a:	e7c0      	b.n	80037fe <RCCEx_PLLSAI1_Config+0x86>
 800387c:	6922      	ldr	r2, [r4, #16]
 800387e:	68a1      	ldr	r1, [r4, #8]
 8003880:	f423 03c0 	bic.w	r3, r3, #6291456	; 0x600000
 8003884:	0852      	lsrs	r2, r2, #1
 8003886:	f423 43fe 	bic.w	r3, r3, #32512	; 0x7f00
 800388a:	3a01      	subs	r2, #1
 800388c:	ea43 2301 	orr.w	r3, r3, r1, lsl #8
 8003890:	ea43 5342 	orr.w	r3, r3, r2, lsl #21
 8003894:	612b      	str	r3, [r5, #16]
 8003896:	e7b2      	b.n	80037fe <RCCEx_PLLSAI1_Config+0x86>
 8003898:	40021000 	.word	0x40021000

0800389c <RCCEx_PLLSAI2_Config>:
 800389c:	b5f8      	push	{r3, r4, r5, r6, r7, lr}
 800389e:	4b3f      	ldr	r3, [pc, #252]	; (800399c <RCCEx_PLLSAI2_Config+0x100>)
 80038a0:	68da      	ldr	r2, [r3, #12]
 80038a2:	0792      	lsls	r2, r2, #30
 80038a4:	4604      	mov	r4, r0
 80038a6:	460f      	mov	r7, r1
 80038a8:	d007      	beq.n	80038ba <RCCEx_PLLSAI2_Config+0x1e>
 80038aa:	68da      	ldr	r2, [r3, #12]
 80038ac:	6801      	ldr	r1, [r0, #0]
 80038ae:	f002 0203 	and.w	r2, r2, #3
 80038b2:	428a      	cmp	r2, r1
 80038b4:	d04c      	beq.n	8003950 <RCCEx_PLLSAI2_Config+0xb4>
 80038b6:	2001      	movs	r0, #1
 80038b8:	bdf8      	pop	{r3, r4, r5, r6, r7, pc}
 80038ba:	6800      	ldr	r0, [r0, #0]
 80038bc:	2802      	cmp	r0, #2
 80038be:	d058      	beq.n	8003972 <RCCEx_PLLSAI2_Config+0xd6>
 80038c0:	2803      	cmp	r0, #3
 80038c2:	d04f      	beq.n	8003964 <RCCEx_PLLSAI2_Config+0xc8>
 80038c4:	2801      	cmp	r0, #1
 80038c6:	d1f6      	bne.n	80038b6 <RCCEx_PLLSAI2_Config+0x1a>
 80038c8:	681b      	ldr	r3, [r3, #0]
 80038ca:	079b      	lsls	r3, r3, #30
 80038cc:	d5f4      	bpl.n	80038b8 <RCCEx_PLLSAI2_Config+0x1c>
 80038ce:	4933      	ldr	r1, [pc, #204]	; (800399c <RCCEx_PLLSAI2_Config+0x100>)
 80038d0:	6862      	ldr	r2, [r4, #4]
 80038d2:	68cb      	ldr	r3, [r1, #12]
 80038d4:	f023 0373 	bic.w	r3, r3, #115	; 0x73
 80038d8:	4303      	orrs	r3, r0
 80038da:	3a01      	subs	r2, #1
 80038dc:	ea43 1302 	orr.w	r3, r3, r2, lsl #4
 80038e0:	60cb      	str	r3, [r1, #12]
 80038e2:	4d2e      	ldr	r5, [pc, #184]	; (800399c <RCCEx_PLLSAI2_Config+0x100>)
 80038e4:	682b      	ldr	r3, [r5, #0]
 80038e6:	f023 5380 	bic.w	r3, r3, #268435456	; 0x10000000
 80038ea:	602b      	str	r3, [r5, #0]
 80038ec:	f7fe fc7a 	bl	80021e4 <HAL_GetTick>
 80038f0:	4606      	mov	r6, r0
 80038f2:	e004      	b.n	80038fe <RCCEx_PLLSAI2_Config+0x62>
 80038f4:	f7fe fc76 	bl	80021e4 <HAL_GetTick>
 80038f8:	1b83      	subs	r3, r0, r6
 80038fa:	2b02      	cmp	r3, #2
 80038fc:	d83d      	bhi.n	800397a <RCCEx_PLLSAI2_Config+0xde>
 80038fe:	682b      	ldr	r3, [r5, #0]
 8003900:	009a      	lsls	r2, r3, #2
 8003902:	d4f7      	bmi.n	80038f4 <RCCEx_PLLSAI2_Config+0x58>
 8003904:	2f00      	cmp	r7, #0
 8003906:	d13a      	bne.n	800397e <RCCEx_PLLSAI2_Config+0xe2>
 8003908:	696b      	ldr	r3, [r5, #20]
 800390a:	e9d4 1202 	ldrd	r1, r2, [r4, #8]
 800390e:	f423 331f 	bic.w	r3, r3, #162816	; 0x27c00
 8003912:	f423 7340 	bic.w	r3, r3, #768	; 0x300
 8003916:	ea43 2301 	orr.w	r3, r3, r1, lsl #8
 800391a:	0912      	lsrs	r2, r2, #4
 800391c:	ea43 4342 	orr.w	r3, r3, r2, lsl #17
 8003920:	616b      	str	r3, [r5, #20]
 8003922:	4d1e      	ldr	r5, [pc, #120]	; (800399c <RCCEx_PLLSAI2_Config+0x100>)
 8003924:	682b      	ldr	r3, [r5, #0]
 8003926:	f043 5380 	orr.w	r3, r3, #268435456	; 0x10000000
 800392a:	602b      	str	r3, [r5, #0]
 800392c:	f7fe fc5a 	bl	80021e4 <HAL_GetTick>
 8003930:	4606      	mov	r6, r0
 8003932:	e004      	b.n	800393e <RCCEx_PLLSAI2_Config+0xa2>
 8003934:	f7fe fc56 	bl	80021e4 <HAL_GetTick>
 8003938:	1b83      	subs	r3, r0, r6
 800393a:	2b02      	cmp	r3, #2
 800393c:	d81d      	bhi.n	800397a <RCCEx_PLLSAI2_Config+0xde>
 800393e:	682b      	ldr	r3, [r5, #0]
 8003940:	009b      	lsls	r3, r3, #2
 8003942:	d5f7      	bpl.n	8003934 <RCCEx_PLLSAI2_Config+0x98>
 8003944:	696b      	ldr	r3, [r5, #20]
 8003946:	6962      	ldr	r2, [r4, #20]
 8003948:	4313      	orrs	r3, r2
 800394a:	2000      	movs	r0, #0
 800394c:	616b      	str	r3, [r5, #20]
 800394e:	bdf8      	pop	{r3, r4, r5, r6, r7, pc}
 8003950:	2a00      	cmp	r2, #0
 8003952:	d0b0      	beq.n	80038b6 <RCCEx_PLLSAI2_Config+0x1a>
 8003954:	68db      	ldr	r3, [r3, #12]
 8003956:	6842      	ldr	r2, [r0, #4]
 8003958:	f3c3 1302 	ubfx	r3, r3, #4, #3
 800395c:	3301      	adds	r3, #1
 800395e:	4293      	cmp	r3, r2
 8003960:	d1a9      	bne.n	80038b6 <RCCEx_PLLSAI2_Config+0x1a>
 8003962:	e7be      	b.n	80038e2 <RCCEx_PLLSAI2_Config+0x46>
 8003964:	681a      	ldr	r2, [r3, #0]
 8003966:	0395      	lsls	r5, r2, #14
 8003968:	d4b1      	bmi.n	80038ce <RCCEx_PLLSAI2_Config+0x32>
 800396a:	681b      	ldr	r3, [r3, #0]
 800396c:	0359      	lsls	r1, r3, #13
 800396e:	d5a2      	bpl.n	80038b6 <RCCEx_PLLSAI2_Config+0x1a>
 8003970:	e7ad      	b.n	80038ce <RCCEx_PLLSAI2_Config+0x32>
 8003972:	681b      	ldr	r3, [r3, #0]
 8003974:	055e      	lsls	r6, r3, #21
 8003976:	d59e      	bpl.n	80038b6 <RCCEx_PLLSAI2_Config+0x1a>
 8003978:	e7a9      	b.n	80038ce <RCCEx_PLLSAI2_Config+0x32>
 800397a:	2003      	movs	r0, #3
 800397c:	bdf8      	pop	{r3, r4, r5, r6, r7, pc}
 800397e:	696b      	ldr	r3, [r5, #20]
 8003980:	6922      	ldr	r2, [r4, #16]
 8003982:	68a1      	ldr	r1, [r4, #8]
 8003984:	f023 63c0 	bic.w	r3, r3, #100663296	; 0x6000000
 8003988:	0852      	lsrs	r2, r2, #1
 800398a:	f423 43fe 	bic.w	r3, r3, #32512	; 0x7f00
 800398e:	3a01      	subs	r2, #1
 8003990:	ea43 2301 	orr.w	r3, r3, r1, lsl #8
 8003994:	ea43 6342 	orr.w	r3, r3, r2, lsl #25
 8003998:	616b      	str	r3, [r5, #20]
 800399a:	e7c2      	b.n	8003922 <RCCEx_PLLSAI2_Config+0x86>
 800399c:	40021000 	.word	0x40021000

080039a0 <HAL_RCCEx_PeriphCLKConfig>:
 80039a0:	e92d 43f0 	stmdb	sp!, {r4, r5, r6, r7, r8, r9, lr}
 80039a4:	6803      	ldr	r3, [r0, #0]
 80039a6:	f413 6500 	ands.w	r5, r3, #2048	; 0x800
 80039aa:	b083      	sub	sp, #12
 80039ac:	4604      	mov	r4, r0
 80039ae:	d020      	beq.n	80039f2 <HAL_RCCEx_PeriphCLKConfig+0x52>
 80039b0:	6e41      	ldr	r1, [r0, #100]	; 0x64
 80039b2:	f5b1 0f00 	cmp.w	r1, #8388608	; 0x800000
 80039b6:	f000 81d4 	beq.w	8003d62 <HAL_RCCEx_PeriphCLKConfig+0x3c2>
 80039ba:	f200 8122 	bhi.w	8003c02 <HAL_RCCEx_PeriphCLKConfig+0x262>
 80039be:	2900      	cmp	r1, #0
 80039c0:	f000 81ab 	beq.w	8003d1a <HAL_RCCEx_PeriphCLKConfig+0x37a>
 80039c4:	f5b1 0f80 	cmp.w	r1, #4194304	; 0x400000
 80039c8:	f040 811f 	bne.w	8003c0a <HAL_RCCEx_PeriphCLKConfig+0x26a>
 80039cc:	2100      	movs	r1, #0
 80039ce:	3020      	adds	r0, #32
 80039d0:	f7ff ff64 	bl	800389c <RCCEx_PLLSAI2_Config>
 80039d4:	4605      	mov	r5, r0
 80039d6:	2d00      	cmp	r5, #0
 80039d8:	f040 81d0 	bne.w	8003d7c <HAL_RCCEx_PeriphCLKConfig+0x3dc>
 80039dc:	6e61      	ldr	r1, [r4, #100]	; 0x64
 80039de:	6823      	ldr	r3, [r4, #0]
 80039e0:	48ae      	ldr	r0, [pc, #696]	; (8003c9c <HAL_RCCEx_PeriphCLKConfig+0x2fc>)
 80039e2:	f8d0 2088 	ldr.w	r2, [r0, #136]	; 0x88
 80039e6:	f422 0240 	bic.w	r2, r2, #12582912	; 0xc00000
 80039ea:	430a      	orrs	r2, r1
 80039ec:	f8c0 2088 	str.w	r2, [r0, #136]	; 0x88
 80039f0:	2500      	movs	r5, #0
 80039f2:	04d8      	lsls	r0, r3, #19
 80039f4:	f140 810e 	bpl.w	8003c14 <HAL_RCCEx_PeriphCLKConfig+0x274>
 80039f8:	6ea1      	ldr	r1, [r4, #104]	; 0x68
 80039fa:	f1b1 7f00 	cmp.w	r1, #33554432	; 0x2000000
 80039fe:	f000 81b6 	beq.w	8003d6e <HAL_RCCEx_PeriphCLKConfig+0x3ce>
 8003a02:	f200 816c 	bhi.w	8003cde <HAL_RCCEx_PeriphCLKConfig+0x33e>
 8003a06:	2900      	cmp	r1, #0
 8003a08:	f000 8181 	beq.w	8003d0e <HAL_RCCEx_PeriphCLKConfig+0x36e>
 8003a0c:	f1b1 7f80 	cmp.w	r1, #16777216	; 0x1000000
 8003a10:	f040 819a 	bne.w	8003d48 <HAL_RCCEx_PeriphCLKConfig+0x3a8>
 8003a14:	2100      	movs	r1, #0
 8003a16:	f104 0020 	add.w	r0, r4, #32
 8003a1a:	f7ff ff3f 	bl	800389c <RCCEx_PLLSAI2_Config>
 8003a1e:	6823      	ldr	r3, [r4, #0]
 8003a20:	4680      	mov	r8, r0
 8003a22:	f1b8 0f00 	cmp.w	r8, #0
 8003a26:	f040 8162 	bne.w	8003cee <HAL_RCCEx_PeriphCLKConfig+0x34e>
 8003a2a:	499c      	ldr	r1, [pc, #624]	; (8003c9c <HAL_RCCEx_PeriphCLKConfig+0x2fc>)
 8003a2c:	6ea0      	ldr	r0, [r4, #104]	; 0x68
 8003a2e:	f8d1 2088 	ldr.w	r2, [r1, #136]	; 0x88
 8003a32:	f022 7240 	bic.w	r2, r2, #50331648	; 0x3000000
 8003a36:	4302      	orrs	r2, r0
 8003a38:	f8c1 2088 	str.w	r2, [r1, #136]	; 0x88
 8003a3c:	0399      	lsls	r1, r3, #14
 8003a3e:	f100 80ed 	bmi.w	8003c1c <HAL_RCCEx_PeriphCLKConfig+0x27c>
 8003a42:	07da      	lsls	r2, r3, #31
 8003a44:	d508      	bpl.n	8003a58 <HAL_RCCEx_PeriphCLKConfig+0xb8>
 8003a46:	4995      	ldr	r1, [pc, #596]	; (8003c9c <HAL_RCCEx_PeriphCLKConfig+0x2fc>)
 8003a48:	6ba0      	ldr	r0, [r4, #56]	; 0x38
 8003a4a:	f8d1 2088 	ldr.w	r2, [r1, #136]	; 0x88
 8003a4e:	f022 0203 	bic.w	r2, r2, #3
 8003a52:	4302      	orrs	r2, r0
 8003a54:	f8c1 2088 	str.w	r2, [r1, #136]	; 0x88
 8003a58:	079f      	lsls	r7, r3, #30
 8003a5a:	d508      	bpl.n	8003a6e <HAL_RCCEx_PeriphCLKConfig+0xce>
 8003a5c:	498f      	ldr	r1, [pc, #572]	; (8003c9c <HAL_RCCEx_PeriphCLKConfig+0x2fc>)
 8003a5e:	6be0      	ldr	r0, [r4, #60]	; 0x3c
 8003a60:	f8d1 2088 	ldr.w	r2, [r1, #136]	; 0x88
 8003a64:	f022 020c 	bic.w	r2, r2, #12
 8003a68:	4302      	orrs	r2, r0
 8003a6a:	f8c1 2088 	str.w	r2, [r1, #136]	; 0x88
 8003a6e:	075e      	lsls	r6, r3, #29
 8003a70:	d508      	bpl.n	8003a84 <HAL_RCCEx_PeriphCLKConfig+0xe4>
 8003a72:	498a      	ldr	r1, [pc, #552]	; (8003c9c <HAL_RCCEx_PeriphCLKConfig+0x2fc>)
 8003a74:	6c20      	ldr	r0, [r4, #64]	; 0x40
 8003a76:	f8d1 2088 	ldr.w	r2, [r1, #136]	; 0x88
 8003a7a:	f022 0230 	bic.w	r2, r2, #48	; 0x30
 8003a7e:	4302      	orrs	r2, r0
 8003a80:	f8c1 2088 	str.w	r2, [r1, #136]	; 0x88
 8003a84:	0718      	lsls	r0, r3, #28
 8003a86:	d508      	bpl.n	8003a9a <HAL_RCCEx_PeriphCLKConfig+0xfa>
 8003a88:	4984      	ldr	r1, [pc, #528]	; (8003c9c <HAL_RCCEx_PeriphCLKConfig+0x2fc>)
 8003a8a:	6c60      	ldr	r0, [r4, #68]	; 0x44
 8003a8c:	f8d1 2088 	ldr.w	r2, [r1, #136]	; 0x88
 8003a90:	f022 02c0 	bic.w	r2, r2, #192	; 0xc0
 8003a94:	4302      	orrs	r2, r0
 8003a96:	f8c1 2088 	str.w	r2, [r1, #136]	; 0x88
 8003a9a:	06d9      	lsls	r1, r3, #27
 8003a9c:	d508      	bpl.n	8003ab0 <HAL_RCCEx_PeriphCLKConfig+0x110>
 8003a9e:	497f      	ldr	r1, [pc, #508]	; (8003c9c <HAL_RCCEx_PeriphCLKConfig+0x2fc>)
 8003aa0:	6ca0      	ldr	r0, [r4, #72]	; 0x48
 8003aa2:	f8d1 2088 	ldr.w	r2, [r1, #136]	; 0x88
 8003aa6:	f422 7240 	bic.w	r2, r2, #768	; 0x300
 8003aaa:	4302      	orrs	r2, r0
 8003aac:	f8c1 2088 	str.w	r2, [r1, #136]	; 0x88
 8003ab0:	069a      	lsls	r2, r3, #26
 8003ab2:	d508      	bpl.n	8003ac6 <HAL_RCCEx_PeriphCLKConfig+0x126>
 8003ab4:	4979      	ldr	r1, [pc, #484]	; (8003c9c <HAL_RCCEx_PeriphCLKConfig+0x2fc>)
 8003ab6:	6ce0      	ldr	r0, [r4, #76]	; 0x4c
 8003ab8:	f8d1 2088 	ldr.w	r2, [r1, #136]	; 0x88
 8003abc:	f422 6240 	bic.w	r2, r2, #3072	; 0xc00
 8003ac0:	4302      	orrs	r2, r0
 8003ac2:	f8c1 2088 	str.w	r2, [r1, #136]	; 0x88
 8003ac6:	059f      	lsls	r7, r3, #22
 8003ac8:	d508      	bpl.n	8003adc <HAL_RCCEx_PeriphCLKConfig+0x13c>
 8003aca:	4974      	ldr	r1, [pc, #464]	; (8003c9c <HAL_RCCEx_PeriphCLKConfig+0x2fc>)
 8003acc:	6de0      	ldr	r0, [r4, #92]	; 0x5c
 8003ace:	f8d1 2088 	ldr.w	r2, [r1, #136]	; 0x88
 8003ad2:	f422 2240 	bic.w	r2, r2, #786432	; 0xc0000
 8003ad6:	4302      	orrs	r2, r0
 8003ad8:	f8c1 2088 	str.w	r2, [r1, #136]	; 0x88
 8003adc:	055e      	lsls	r6, r3, #21
 8003ade:	d508      	bpl.n	8003af2 <HAL_RCCEx_PeriphCLKConfig+0x152>
 8003ae0:	496e      	ldr	r1, [pc, #440]	; (8003c9c <HAL_RCCEx_PeriphCLKConfig+0x2fc>)
 8003ae2:	6e20      	ldr	r0, [r4, #96]	; 0x60
 8003ae4:	f8d1 2088 	ldr.w	r2, [r1, #136]	; 0x88
 8003ae8:	f422 1240 	bic.w	r2, r2, #3145728	; 0x300000
 8003aec:	4302      	orrs	r2, r0
 8003aee:	f8c1 2088 	str.w	r2, [r1, #136]	; 0x88
 8003af2:	0658      	lsls	r0, r3, #25
 8003af4:	d508      	bpl.n	8003b08 <HAL_RCCEx_PeriphCLKConfig+0x168>
 8003af6:	4969      	ldr	r1, [pc, #420]	; (8003c9c <HAL_RCCEx_PeriphCLKConfig+0x2fc>)
 8003af8:	6d20      	ldr	r0, [r4, #80]	; 0x50
 8003afa:	f8d1 2088 	ldr.w	r2, [r1, #136]	; 0x88
 8003afe:	f422 5240 	bic.w	r2, r2, #12288	; 0x3000
 8003b02:	4302      	orrs	r2, r0
 8003b04:	f8c1 2088 	str.w	r2, [r1, #136]	; 0x88
 8003b08:	0619      	lsls	r1, r3, #24
 8003b0a:	d508      	bpl.n	8003b1e <HAL_RCCEx_PeriphCLKConfig+0x17e>
 8003b0c:	4963      	ldr	r1, [pc, #396]	; (8003c9c <HAL_RCCEx_PeriphCLKConfig+0x2fc>)
 8003b0e:	6d60      	ldr	r0, [r4, #84]	; 0x54
 8003b10:	f8d1 2088 	ldr.w	r2, [r1, #136]	; 0x88
 8003b14:	f422 4240 	bic.w	r2, r2, #49152	; 0xc000
 8003b18:	4302      	orrs	r2, r0
 8003b1a:	f8c1 2088 	str.w	r2, [r1, #136]	; 0x88
 8003b1e:	05da      	lsls	r2, r3, #23
 8003b20:	d508      	bpl.n	8003b34 <HAL_RCCEx_PeriphCLKConfig+0x194>
 8003b22:	495e      	ldr	r1, [pc, #376]	; (8003c9c <HAL_RCCEx_PeriphCLKConfig+0x2fc>)
 8003b24:	6da0      	ldr	r0, [r4, #88]	; 0x58
 8003b26:	f8d1 2088 	ldr.w	r2, [r1, #136]	; 0x88
 8003b2a:	f422 3240 	bic.w	r2, r2, #196608	; 0x30000
 8003b2e:	4302      	orrs	r2, r0
 8003b30:	f8c1 2088 	str.w	r2, [r1, #136]	; 0x88
 8003b34:	049f      	lsls	r7, r3, #18
 8003b36:	d510      	bpl.n	8003b5a <HAL_RCCEx_PeriphCLKConfig+0x1ba>
 8003b38:	4958      	ldr	r1, [pc, #352]	; (8003c9c <HAL_RCCEx_PeriphCLKConfig+0x2fc>)
 8003b3a:	6ee0      	ldr	r0, [r4, #108]	; 0x6c
 8003b3c:	f8d1 2088 	ldr.w	r2, [r1, #136]	; 0x88
 8003b40:	f022 6240 	bic.w	r2, r2, #201326592	; 0xc000000
 8003b44:	4302      	orrs	r2, r0
 8003b46:	f1b0 6f00 	cmp.w	r0, #134217728	; 0x8000000
 8003b4a:	f8c1 2088 	str.w	r2, [r1, #136]	; 0x88
 8003b4e:	f000 80f1 	beq.w	8003d34 <HAL_RCCEx_PeriphCLKConfig+0x394>
 8003b52:	f1b0 6f80 	cmp.w	r0, #67108864	; 0x4000000
 8003b56:	f000 8128 	beq.w	8003daa <HAL_RCCEx_PeriphCLKConfig+0x40a>
 8003b5a:	031e      	lsls	r6, r3, #12
 8003b5c:	d510      	bpl.n	8003b80 <HAL_RCCEx_PeriphCLKConfig+0x1e0>
 8003b5e:	494f      	ldr	r1, [pc, #316]	; (8003c9c <HAL_RCCEx_PeriphCLKConfig+0x2fc>)
 8003b60:	6f20      	ldr	r0, [r4, #112]	; 0x70
 8003b62:	f8d1 2088 	ldr.w	r2, [r1, #136]	; 0x88
 8003b66:	f022 6240 	bic.w	r2, r2, #201326592	; 0xc000000
 8003b6a:	4302      	orrs	r2, r0
 8003b6c:	f1b0 6f00 	cmp.w	r0, #134217728	; 0x8000000
 8003b70:	f8c1 2088 	str.w	r2, [r1, #136]	; 0x88
 8003b74:	f000 80e3 	beq.w	8003d3e <HAL_RCCEx_PeriphCLKConfig+0x39e>
 8003b78:	f1b0 6f80 	cmp.w	r0, #67108864	; 0x4000000
 8003b7c:	f000 811f 	beq.w	8003dbe <HAL_RCCEx_PeriphCLKConfig+0x41e>
 8003b80:	0358      	lsls	r0, r3, #13
 8003b82:	d510      	bpl.n	8003ba6 <HAL_RCCEx_PeriphCLKConfig+0x206>
 8003b84:	4945      	ldr	r1, [pc, #276]	; (8003c9c <HAL_RCCEx_PeriphCLKConfig+0x2fc>)
 8003b86:	6f60      	ldr	r0, [r4, #116]	; 0x74
 8003b88:	f8d1 2088 	ldr.w	r2, [r1, #136]	; 0x88
 8003b8c:	f022 6240 	bic.w	r2, r2, #201326592	; 0xc000000
 8003b90:	4302      	orrs	r2, r0
 8003b92:	f1b0 6f00 	cmp.w	r0, #134217728	; 0x8000000
 8003b96:	f8c1 2088 	str.w	r2, [r1, #136]	; 0x88
 8003b9a:	f000 80c6 	beq.w	8003d2a <HAL_RCCEx_PeriphCLKConfig+0x38a>
 8003b9e:	f1b0 6f80 	cmp.w	r0, #67108864	; 0x4000000
 8003ba2:	f000 80f8 	beq.w	8003d96 <HAL_RCCEx_PeriphCLKConfig+0x3f6>
 8003ba6:	0459      	lsls	r1, r3, #17
 8003ba8:	d510      	bpl.n	8003bcc <HAL_RCCEx_PeriphCLKConfig+0x22c>
 8003baa:	483c      	ldr	r0, [pc, #240]	; (8003c9c <HAL_RCCEx_PeriphCLKConfig+0x2fc>)
 8003bac:	6fa1      	ldr	r1, [r4, #120]	; 0x78
 8003bae:	f8d0 2088 	ldr.w	r2, [r0, #136]	; 0x88
 8003bb2:	f022 5240 	bic.w	r2, r2, #805306368	; 0x30000000
 8003bb6:	430a      	orrs	r2, r1
 8003bb8:	f1b1 5f80 	cmp.w	r1, #268435456	; 0x10000000
 8003bbc:	f8c0 2088 	str.w	r2, [r0, #136]	; 0x88
 8003bc0:	f000 80c5 	beq.w	8003d4e <HAL_RCCEx_PeriphCLKConfig+0x3ae>
 8003bc4:	f1b1 5f00 	cmp.w	r1, #536870912	; 0x20000000
 8003bc8:	f000 80da 	beq.w	8003d80 <HAL_RCCEx_PeriphCLKConfig+0x3e0>
 8003bcc:	041a      	lsls	r2, r3, #16
 8003bce:	d508      	bpl.n	8003be2 <HAL_RCCEx_PeriphCLKConfig+0x242>
 8003bd0:	4932      	ldr	r1, [pc, #200]	; (8003c9c <HAL_RCCEx_PeriphCLKConfig+0x2fc>)
 8003bd2:	6fe0      	ldr	r0, [r4, #124]	; 0x7c
 8003bd4:	f8d1 2088 	ldr.w	r2, [r1, #136]	; 0x88
 8003bd8:	f022 4280 	bic.w	r2, r2, #1073741824	; 0x40000000
 8003bdc:	4302      	orrs	r2, r0
 8003bde:	f8c1 2088 	str.w	r2, [r1, #136]	; 0x88
 8003be2:	03db      	lsls	r3, r3, #15
 8003be4:	d509      	bpl.n	8003bfa <HAL_RCCEx_PeriphCLKConfig+0x25a>
 8003be6:	4a2d      	ldr	r2, [pc, #180]	; (8003c9c <HAL_RCCEx_PeriphCLKConfig+0x2fc>)
 8003be8:	f8d4 1080 	ldr.w	r1, [r4, #128]	; 0x80
 8003bec:	f8d2 3088 	ldr.w	r3, [r2, #136]	; 0x88
 8003bf0:	f023 4300 	bic.w	r3, r3, #2147483648	; 0x80000000
 8003bf4:	430b      	orrs	r3, r1
 8003bf6:	f8c2 3088 	str.w	r3, [r2, #136]	; 0x88
 8003bfa:	4628      	mov	r0, r5
 8003bfc:	b003      	add	sp, #12
 8003bfe:	e8bd 83f0 	ldmia.w	sp!, {r4, r5, r6, r7, r8, r9, pc}
 8003c02:	f5b1 0f40 	cmp.w	r1, #12582912	; 0xc00000
 8003c06:	f43f aeeb 	beq.w	80039e0 <HAL_RCCEx_PeriphCLKConfig+0x40>
 8003c0a:	04d8      	lsls	r0, r3, #19
 8003c0c:	f04f 0501 	mov.w	r5, #1
 8003c10:	f53f aef2 	bmi.w	80039f8 <HAL_RCCEx_PeriphCLKConfig+0x58>
 8003c14:	46a8      	mov	r8, r5
 8003c16:	0399      	lsls	r1, r3, #14
 8003c18:	f57f af13 	bpl.w	8003a42 <HAL_RCCEx_PeriphCLKConfig+0xa2>
 8003c1c:	4b1f      	ldr	r3, [pc, #124]	; (8003c9c <HAL_RCCEx_PeriphCLKConfig+0x2fc>)
 8003c1e:	6d9a      	ldr	r2, [r3, #88]	; 0x58
 8003c20:	00d2      	lsls	r2, r2, #3
 8003c22:	d566      	bpl.n	8003cf2 <HAL_RCCEx_PeriphCLKConfig+0x352>
 8003c24:	f04f 0900 	mov.w	r9, #0
 8003c28:	4e1d      	ldr	r6, [pc, #116]	; (8003ca0 <HAL_RCCEx_PeriphCLKConfig+0x300>)
 8003c2a:	6833      	ldr	r3, [r6, #0]
 8003c2c:	f443 7380 	orr.w	r3, r3, #256	; 0x100
 8003c30:	6033      	str	r3, [r6, #0]
 8003c32:	f7fe fad7 	bl	80021e4 <HAL_GetTick>
 8003c36:	4607      	mov	r7, r0
 8003c38:	e004      	b.n	8003c44 <HAL_RCCEx_PeriphCLKConfig+0x2a4>
 8003c3a:	f7fe fad3 	bl	80021e4 <HAL_GetTick>
 8003c3e:	1bc3      	subs	r3, r0, r7
 8003c40:	2b02      	cmp	r3, #2
 8003c42:	d862      	bhi.n	8003d0a <HAL_RCCEx_PeriphCLKConfig+0x36a>
 8003c44:	6833      	ldr	r3, [r6, #0]
 8003c46:	05db      	lsls	r3, r3, #23
 8003c48:	d5f7      	bpl.n	8003c3a <HAL_RCCEx_PeriphCLKConfig+0x29a>
 8003c4a:	f1b8 0f00 	cmp.w	r8, #0
 8003c4e:	f040 80c0 	bne.w	8003dd2 <HAL_RCCEx_PeriphCLKConfig+0x432>
 8003c52:	4e12      	ldr	r6, [pc, #72]	; (8003c9c <HAL_RCCEx_PeriphCLKConfig+0x2fc>)
 8003c54:	f8d6 3090 	ldr.w	r3, [r6, #144]	; 0x90
 8003c58:	f413 7340 	ands.w	r3, r3, #768	; 0x300
 8003c5c:	d02b      	beq.n	8003cb6 <HAL_RCCEx_PeriphCLKConfig+0x316>
 8003c5e:	f8d4 2084 	ldr.w	r2, [r4, #132]	; 0x84
 8003c62:	429a      	cmp	r2, r3
 8003c64:	d029      	beq.n	8003cba <HAL_RCCEx_PeriphCLKConfig+0x31a>
 8003c66:	f8d6 1090 	ldr.w	r1, [r6, #144]	; 0x90
 8003c6a:	f8d6 3090 	ldr.w	r3, [r6, #144]	; 0x90
 8003c6e:	f443 3380 	orr.w	r3, r3, #65536	; 0x10000
 8003c72:	f8c6 3090 	str.w	r3, [r6, #144]	; 0x90
 8003c76:	f8d6 3090 	ldr.w	r3, [r6, #144]	; 0x90
 8003c7a:	f423 3380 	bic.w	r3, r3, #65536	; 0x10000
 8003c7e:	f8c6 3090 	str.w	r3, [r6, #144]	; 0x90
 8003c82:	07c8      	lsls	r0, r1, #31
 8003c84:	f421 7340 	bic.w	r3, r1, #768	; 0x300
 8003c88:	f8c6 3090 	str.w	r3, [r6, #144]	; 0x90
 8003c8c:	f140 80a3 	bpl.w	8003dd6 <HAL_RCCEx_PeriphCLKConfig+0x436>
 8003c90:	f7fe faa8 	bl	80021e4 <HAL_GetTick>
 8003c94:	f241 3888 	movw	r8, #5000	; 0x1388
 8003c98:	4607      	mov	r7, r0
 8003c9a:	e008      	b.n	8003cae <HAL_RCCEx_PeriphCLKConfig+0x30e>
 8003c9c:	40021000 	.word	0x40021000
 8003ca0:	40007000 	.word	0x40007000
 8003ca4:	f7fe fa9e 	bl	80021e4 <HAL_GetTick>
 8003ca8:	1bc0      	subs	r0, r0, r7
 8003caa:	4540      	cmp	r0, r8
 8003cac:	d82d      	bhi.n	8003d0a <HAL_RCCEx_PeriphCLKConfig+0x36a>
 8003cae:	f8d6 3090 	ldr.w	r3, [r6, #144]	; 0x90
 8003cb2:	0799      	lsls	r1, r3, #30
 8003cb4:	d5f6      	bpl.n	8003ca4 <HAL_RCCEx_PeriphCLKConfig+0x304>
 8003cb6:	f8d4 3084 	ldr.w	r3, [r4, #132]	; 0x84
 8003cba:	4948      	ldr	r1, [pc, #288]	; (8003ddc <HAL_RCCEx_PeriphCLKConfig+0x43c>)
 8003cbc:	f8d1 2090 	ldr.w	r2, [r1, #144]	; 0x90
 8003cc0:	f422 7240 	bic.w	r2, r2, #768	; 0x300
 8003cc4:	4313      	orrs	r3, r2
 8003cc6:	f8c1 3090 	str.w	r3, [r1, #144]	; 0x90
 8003cca:	f1b9 0f00 	cmp.w	r9, #0
 8003cce:	d004      	beq.n	8003cda <HAL_RCCEx_PeriphCLKConfig+0x33a>
 8003cd0:	4a42      	ldr	r2, [pc, #264]	; (8003ddc <HAL_RCCEx_PeriphCLKConfig+0x43c>)
 8003cd2:	6d93      	ldr	r3, [r2, #88]	; 0x58
 8003cd4:	f023 5380 	bic.w	r3, r3, #268435456	; 0x10000000
 8003cd8:	6593      	str	r3, [r2, #88]	; 0x58
 8003cda:	6823      	ldr	r3, [r4, #0]
 8003cdc:	e6b1      	b.n	8003a42 <HAL_RCCEx_PeriphCLKConfig+0xa2>
 8003cde:	f1b1 7f40 	cmp.w	r1, #50331648	; 0x3000000
 8003ce2:	d131      	bne.n	8003d48 <HAL_RCCEx_PeriphCLKConfig+0x3a8>
 8003ce4:	46a8      	mov	r8, r5
 8003ce6:	f1b8 0f00 	cmp.w	r8, #0
 8003cea:	f43f ae9e 	beq.w	8003a2a <HAL_RCCEx_PeriphCLKConfig+0x8a>
 8003cee:	4645      	mov	r5, r8
 8003cf0:	e791      	b.n	8003c16 <HAL_RCCEx_PeriphCLKConfig+0x276>
 8003cf2:	6d9a      	ldr	r2, [r3, #88]	; 0x58
 8003cf4:	f042 5280 	orr.w	r2, r2, #268435456	; 0x10000000
 8003cf8:	659a      	str	r2, [r3, #88]	; 0x58
 8003cfa:	6d9b      	ldr	r3, [r3, #88]	; 0x58
 8003cfc:	f003 5380 	and.w	r3, r3, #268435456	; 0x10000000
 8003d00:	9301      	str	r3, [sp, #4]
 8003d02:	9b01      	ldr	r3, [sp, #4]
 8003d04:	f04f 0901 	mov.w	r9, #1
 8003d08:	e78e      	b.n	8003c28 <HAL_RCCEx_PeriphCLKConfig+0x288>
 8003d0a:	2503      	movs	r5, #3
 8003d0c:	e7dd      	b.n	8003cca <HAL_RCCEx_PeriphCLKConfig+0x32a>
 8003d0e:	1d20      	adds	r0, r4, #4
 8003d10:	f7ff fd32 	bl	8003778 <RCCEx_PLLSAI1_Config>
 8003d14:	6823      	ldr	r3, [r4, #0]
 8003d16:	4680      	mov	r8, r0
 8003d18:	e683      	b.n	8003a22 <HAL_RCCEx_PeriphCLKConfig+0x82>
 8003d1a:	3004      	adds	r0, #4
 8003d1c:	f7ff fd2c 	bl	8003778 <RCCEx_PLLSAI1_Config>
 8003d20:	4605      	mov	r5, r0
 8003d22:	2d00      	cmp	r5, #0
 8003d24:	f43f ae5a 	beq.w	80039dc <HAL_RCCEx_PeriphCLKConfig+0x3c>
 8003d28:	e028      	b.n	8003d7c <HAL_RCCEx_PeriphCLKConfig+0x3dc>
 8003d2a:	68ca      	ldr	r2, [r1, #12]
 8003d2c:	f442 1280 	orr.w	r2, r2, #1048576	; 0x100000
 8003d30:	60ca      	str	r2, [r1, #12]
 8003d32:	e738      	b.n	8003ba6 <HAL_RCCEx_PeriphCLKConfig+0x206>
 8003d34:	68ca      	ldr	r2, [r1, #12]
 8003d36:	f442 1280 	orr.w	r2, r2, #1048576	; 0x100000
 8003d3a:	60ca      	str	r2, [r1, #12]
 8003d3c:	e70d      	b.n	8003b5a <HAL_RCCEx_PeriphCLKConfig+0x1ba>
 8003d3e:	68ca      	ldr	r2, [r1, #12]
 8003d40:	f442 1280 	orr.w	r2, r2, #1048576	; 0x100000
 8003d44:	60ca      	str	r2, [r1, #12]
 8003d46:	e71b      	b.n	8003b80 <HAL_RCCEx_PeriphCLKConfig+0x1e0>
 8003d48:	2501      	movs	r5, #1
 8003d4a:	46a8      	mov	r8, r5
 8003d4c:	e763      	b.n	8003c16 <HAL_RCCEx_PeriphCLKConfig+0x276>
 8003d4e:	2102      	movs	r1, #2
 8003d50:	1d20      	adds	r0, r4, #4
 8003d52:	f7ff fd11 	bl	8003778 <RCCEx_PLLSAI1_Config>
 8003d56:	6823      	ldr	r3, [r4, #0]
 8003d58:	2800      	cmp	r0, #0
 8003d5a:	f43f af37 	beq.w	8003bcc <HAL_RCCEx_PeriphCLKConfig+0x22c>
 8003d5e:	4605      	mov	r5, r0
 8003d60:	e734      	b.n	8003bcc <HAL_RCCEx_PeriphCLKConfig+0x22c>
 8003d62:	481e      	ldr	r0, [pc, #120]	; (8003ddc <HAL_RCCEx_PeriphCLKConfig+0x43c>)
 8003d64:	68c2      	ldr	r2, [r0, #12]
 8003d66:	f442 3280 	orr.w	r2, r2, #65536	; 0x10000
 8003d6a:	60c2      	str	r2, [r0, #12]
 8003d6c:	e638      	b.n	80039e0 <HAL_RCCEx_PeriphCLKConfig+0x40>
 8003d6e:	491b      	ldr	r1, [pc, #108]	; (8003ddc <HAL_RCCEx_PeriphCLKConfig+0x43c>)
 8003d70:	68ca      	ldr	r2, [r1, #12]
 8003d72:	f442 3280 	orr.w	r2, r2, #65536	; 0x10000
 8003d76:	60ca      	str	r2, [r1, #12]
 8003d78:	46a8      	mov	r8, r5
 8003d7a:	e652      	b.n	8003a22 <HAL_RCCEx_PeriphCLKConfig+0x82>
 8003d7c:	6823      	ldr	r3, [r4, #0]
 8003d7e:	e638      	b.n	80039f2 <HAL_RCCEx_PeriphCLKConfig+0x52>
 8003d80:	2102      	movs	r1, #2
 8003d82:	f104 0020 	add.w	r0, r4, #32
 8003d86:	f7ff fd89 	bl	800389c <RCCEx_PLLSAI2_Config>
 8003d8a:	6823      	ldr	r3, [r4, #0]
 8003d8c:	2800      	cmp	r0, #0
 8003d8e:	f43f af1d 	beq.w	8003bcc <HAL_RCCEx_PeriphCLKConfig+0x22c>
 8003d92:	4605      	mov	r5, r0
 8003d94:	e71a      	b.n	8003bcc <HAL_RCCEx_PeriphCLKConfig+0x22c>
 8003d96:	2101      	movs	r1, #1
 8003d98:	1d20      	adds	r0, r4, #4
 8003d9a:	f7ff fced 	bl	8003778 <RCCEx_PLLSAI1_Config>
 8003d9e:	6823      	ldr	r3, [r4, #0]
 8003da0:	2800      	cmp	r0, #0
 8003da2:	f43f af00 	beq.w	8003ba6 <HAL_RCCEx_PeriphCLKConfig+0x206>
 8003da6:	4605      	mov	r5, r0
 8003da8:	e6fd      	b.n	8003ba6 <HAL_RCCEx_PeriphCLKConfig+0x206>
 8003daa:	2101      	movs	r1, #1
 8003dac:	1d20      	adds	r0, r4, #4
 8003dae:	f7ff fce3 	bl	8003778 <RCCEx_PLLSAI1_Config>
 8003db2:	6823      	ldr	r3, [r4, #0]
 8003db4:	2800      	cmp	r0, #0
 8003db6:	f43f aed0 	beq.w	8003b5a <HAL_RCCEx_PeriphCLKConfig+0x1ba>
 8003dba:	4605      	mov	r5, r0
 8003dbc:	e6cd      	b.n	8003b5a <HAL_RCCEx_PeriphCLKConfig+0x1ba>
 8003dbe:	2101      	movs	r1, #1
 8003dc0:	1d20      	adds	r0, r4, #4
 8003dc2:	f7ff fcd9 	bl	8003778 <RCCEx_PLLSAI1_Config>
 8003dc6:	6823      	ldr	r3, [r4, #0]
 8003dc8:	2800      	cmp	r0, #0
 8003dca:	f43f aed9 	beq.w	8003b80 <HAL_RCCEx_PeriphCLKConfig+0x1e0>
 8003dce:	4605      	mov	r5, r0
 8003dd0:	e6d6      	b.n	8003b80 <HAL_RCCEx_PeriphCLKConfig+0x1e0>
 8003dd2:	4645      	mov	r5, r8
 8003dd4:	e779      	b.n	8003cca <HAL_RCCEx_PeriphCLKConfig+0x32a>
 8003dd6:	4613      	mov	r3, r2
 8003dd8:	e76f      	b.n	8003cba <HAL_RCCEx_PeriphCLKConfig+0x31a>
 8003dda:	bf00      	nop
 8003ddc:	40021000 	.word	0x40021000

08003de0 <HAL_TIM_Base_Init>:
 8003de0:	2800      	cmp	r0, #0
 8003de2:	f000 8085 	beq.w	8003ef0 <HAL_TIM_Base_Init+0x110>
 8003de6:	b510      	push	{r4, lr}
 8003de8:	f890 303d 	ldrb.w	r3, [r0, #61]	; 0x3d
 8003dec:	4604      	mov	r4, r0
 8003dee:	f003 02ff 	and.w	r2, r3, #255	; 0xff
 8003df2:	2b00      	cmp	r3, #0
 8003df4:	d071      	beq.n	8003eda <HAL_TIM_Base_Init+0xfa>
 8003df6:	6822      	ldr	r2, [r4, #0]
 8003df8:	493e      	ldr	r1, [pc, #248]	; (8003ef4 <HAL_TIM_Base_Init+0x114>)
 8003dfa:	2302      	movs	r3, #2
 8003dfc:	f884 303d 	strb.w	r3, [r4, #61]	; 0x3d
 8003e00:	428a      	cmp	r2, r1
 8003e02:	6813      	ldr	r3, [r2, #0]
 8003e04:	d055      	beq.n	8003eb2 <HAL_TIM_Base_Init+0xd2>
 8003e06:	f1b2 4f80 	cmp.w	r2, #1073741824	; 0x40000000
 8003e0a:	d025      	beq.n	8003e58 <HAL_TIM_Base_Init+0x78>
 8003e0c:	f5a1 3194 	sub.w	r1, r1, #75776	; 0x12800
 8003e10:	428a      	cmp	r2, r1
 8003e12:	d021      	beq.n	8003e58 <HAL_TIM_Base_Init+0x78>
 8003e14:	f501 6180 	add.w	r1, r1, #1024	; 0x400
 8003e18:	428a      	cmp	r2, r1
 8003e1a:	d01d      	beq.n	8003e58 <HAL_TIM_Base_Init+0x78>
 8003e1c:	f501 6180 	add.w	r1, r1, #1024	; 0x400
 8003e20:	428a      	cmp	r2, r1
 8003e22:	d019      	beq.n	8003e58 <HAL_TIM_Base_Init+0x78>
 8003e24:	f501 3194 	add.w	r1, r1, #75776	; 0x12800
 8003e28:	428a      	cmp	r2, r1
 8003e2a:	d042      	beq.n	8003eb2 <HAL_TIM_Base_Init+0xd2>
 8003e2c:	f501 6140 	add.w	r1, r1, #3072	; 0xc00
 8003e30:	428a      	cmp	r2, r1
 8003e32:	d057      	beq.n	8003ee4 <HAL_TIM_Base_Init+0x104>
 8003e34:	f501 6180 	add.w	r1, r1, #1024	; 0x400
 8003e38:	428a      	cmp	r2, r1
 8003e3a:	d053      	beq.n	8003ee4 <HAL_TIM_Base_Init+0x104>
 8003e3c:	f501 6180 	add.w	r1, r1, #1024	; 0x400
 8003e40:	428a      	cmp	r2, r1
 8003e42:	d04f      	beq.n	8003ee4 <HAL_TIM_Base_Init+0x104>
 8003e44:	69a0      	ldr	r0, [r4, #24]
 8003e46:	68e1      	ldr	r1, [r4, #12]
 8003e48:	f023 0380 	bic.w	r3, r3, #128	; 0x80
 8003e4c:	4303      	orrs	r3, r0
 8003e4e:	6013      	str	r3, [r2, #0]
 8003e50:	6863      	ldr	r3, [r4, #4]
 8003e52:	62d1      	str	r1, [r2, #44]	; 0x2c
 8003e54:	6293      	str	r3, [r2, #40]	; 0x28
 8003e56:	e010      	b.n	8003e7a <HAL_TIM_Base_Init+0x9a>
 8003e58:	68a1      	ldr	r1, [r4, #8]
 8003e5a:	6920      	ldr	r0, [r4, #16]
 8003e5c:	f023 0370 	bic.w	r3, r3, #112	; 0x70
 8003e60:	430b      	orrs	r3, r1
 8003e62:	f423 7340 	bic.w	r3, r3, #768	; 0x300
 8003e66:	69a1      	ldr	r1, [r4, #24]
 8003e68:	4303      	orrs	r3, r0
 8003e6a:	f023 0380 	bic.w	r3, r3, #128	; 0x80
 8003e6e:	68e0      	ldr	r0, [r4, #12]
 8003e70:	430b      	orrs	r3, r1
 8003e72:	6861      	ldr	r1, [r4, #4]
 8003e74:	6013      	str	r3, [r2, #0]
 8003e76:	62d0      	str	r0, [r2, #44]	; 0x2c
 8003e78:	6291      	str	r1, [r2, #40]	; 0x28
 8003e7a:	2301      	movs	r3, #1
 8003e7c:	6153      	str	r3, [r2, #20]
 8003e7e:	f884 3048 	strb.w	r3, [r4, #72]	; 0x48
 8003e82:	f884 303e 	strb.w	r3, [r4, #62]	; 0x3e
 8003e86:	f884 303f 	strb.w	r3, [r4, #63]	; 0x3f
 8003e8a:	f884 3040 	strb.w	r3, [r4, #64]	; 0x40
 8003e8e:	f884 3041 	strb.w	r3, [r4, #65]	; 0x41
 8003e92:	f884 3042 	strb.w	r3, [r4, #66]	; 0x42
 8003e96:	f884 3043 	strb.w	r3, [r4, #67]	; 0x43
 8003e9a:	f884 3044 	strb.w	r3, [r4, #68]	; 0x44
 8003e9e:	f884 3045 	strb.w	r3, [r4, #69]	; 0x45
 8003ea2:	f884 3046 	strb.w	r3, [r4, #70]	; 0x46
 8003ea6:	f884 3047 	strb.w	r3, [r4, #71]	; 0x47
 8003eaa:	f884 303d 	strb.w	r3, [r4, #61]	; 0x3d
 8003eae:	2000      	movs	r0, #0
 8003eb0:	bd10      	pop	{r4, pc}
 8003eb2:	68a0      	ldr	r0, [r4, #8]
 8003eb4:	6921      	ldr	r1, [r4, #16]
 8003eb6:	f023 0370 	bic.w	r3, r3, #112	; 0x70
 8003eba:	4303      	orrs	r3, r0
 8003ebc:	f423 7340 	bic.w	r3, r3, #768	; 0x300
 8003ec0:	430b      	orrs	r3, r1
 8003ec2:	69a1      	ldr	r1, [r4, #24]
 8003ec4:	f023 0380 	bic.w	r3, r3, #128	; 0x80
 8003ec8:	430b      	orrs	r3, r1
 8003eca:	6013      	str	r3, [r2, #0]
 8003ecc:	68e3      	ldr	r3, [r4, #12]
 8003ece:	62d3      	str	r3, [r2, #44]	; 0x2c
 8003ed0:	6863      	ldr	r3, [r4, #4]
 8003ed2:	6293      	str	r3, [r2, #40]	; 0x28
 8003ed4:	6963      	ldr	r3, [r4, #20]
 8003ed6:	6313      	str	r3, [r2, #48]	; 0x30
 8003ed8:	e7cf      	b.n	8003e7a <HAL_TIM_Base_Init+0x9a>
 8003eda:	f880 203c 	strb.w	r2, [r0, #60]	; 0x3c
 8003ede:	f7fd fabb 	bl	8001458 <HAL_TIM_Base_MspInit>
 8003ee2:	e788      	b.n	8003df6 <HAL_TIM_Base_Init+0x16>
 8003ee4:	6920      	ldr	r0, [r4, #16]
 8003ee6:	69a1      	ldr	r1, [r4, #24]
 8003ee8:	f423 7340 	bic.w	r3, r3, #768	; 0x300
 8003eec:	4303      	orrs	r3, r0
 8003eee:	e7e9      	b.n	8003ec4 <HAL_TIM_Base_Init+0xe4>
 8003ef0:	2001      	movs	r0, #1
 8003ef2:	4770      	bx	lr
 8003ef4:	40012c00 	.word	0x40012c00

08003ef8 <HAL_TIM_Base_Start_IT>:
 8003ef8:	f890 303d 	ldrb.w	r3, [r0, #61]	; 0x3d
 8003efc:	2b01      	cmp	r3, #1
 8003efe:	d126      	bne.n	8003f4e <HAL_TIM_Base_Start_IT+0x56>
 8003f00:	6803      	ldr	r3, [r0, #0]
 8003f02:	4919      	ldr	r1, [pc, #100]	; (8003f68 <HAL_TIM_Base_Start_IT+0x70>)
 8003f04:	2202      	movs	r2, #2
 8003f06:	f880 203d 	strb.w	r2, [r0, #61]	; 0x3d
 8003f0a:	68da      	ldr	r2, [r3, #12]
 8003f0c:	428b      	cmp	r3, r1
 8003f0e:	f042 0201 	orr.w	r2, r2, #1
 8003f12:	60da      	str	r2, [r3, #12]
 8003f14:	d01d      	beq.n	8003f52 <HAL_TIM_Base_Start_IT+0x5a>
 8003f16:	f1b3 4f80 	cmp.w	r3, #1073741824	; 0x40000000
 8003f1a:	d01a      	beq.n	8003f52 <HAL_TIM_Base_Start_IT+0x5a>
 8003f1c:	4a13      	ldr	r2, [pc, #76]	; (8003f6c <HAL_TIM_Base_Start_IT+0x74>)
 8003f1e:	4293      	cmp	r3, r2
 8003f20:	d017      	beq.n	8003f52 <HAL_TIM_Base_Start_IT+0x5a>
 8003f22:	f502 6280 	add.w	r2, r2, #1024	; 0x400
 8003f26:	4293      	cmp	r3, r2
 8003f28:	d013      	beq.n	8003f52 <HAL_TIM_Base_Start_IT+0x5a>
 8003f2a:	f502 6280 	add.w	r2, r2, #1024	; 0x400
 8003f2e:	4293      	cmp	r3, r2
 8003f30:	d00f      	beq.n	8003f52 <HAL_TIM_Base_Start_IT+0x5a>
 8003f32:	f502 3294 	add.w	r2, r2, #75776	; 0x12800
 8003f36:	4293      	cmp	r3, r2
 8003f38:	d00b      	beq.n	8003f52 <HAL_TIM_Base_Start_IT+0x5a>
 8003f3a:	f502 6240 	add.w	r2, r2, #3072	; 0xc00
 8003f3e:	4293      	cmp	r3, r2
 8003f40:	d007      	beq.n	8003f52 <HAL_TIM_Base_Start_IT+0x5a>
 8003f42:	681a      	ldr	r2, [r3, #0]
 8003f44:	f042 0201 	orr.w	r2, r2, #1
 8003f48:	2000      	movs	r0, #0
 8003f4a:	601a      	str	r2, [r3, #0]
 8003f4c:	4770      	bx	lr
 8003f4e:	2001      	movs	r0, #1
 8003f50:	4770      	bx	lr
 8003f52:	6899      	ldr	r1, [r3, #8]
 8003f54:	4a06      	ldr	r2, [pc, #24]	; (8003f70 <HAL_TIM_Base_Start_IT+0x78>)
 8003f56:	400a      	ands	r2, r1
 8003f58:	2a06      	cmp	r2, #6
 8003f5a:	d002      	beq.n	8003f62 <HAL_TIM_Base_Start_IT+0x6a>
 8003f5c:	f5b2 3f80 	cmp.w	r2, #65536	; 0x10000
 8003f60:	d1ef      	bne.n	8003f42 <HAL_TIM_Base_Start_IT+0x4a>
 8003f62:	2000      	movs	r0, #0
 8003f64:	4770      	bx	lr
 8003f66:	bf00      	nop
 8003f68:	40012c00 	.word	0x40012c00
 8003f6c:	40000400 	.word	0x40000400
 8003f70:	00010007 	.word	0x00010007

08003f74 <HAL_TIM_ConfigClockSource>:
 8003f74:	f890 303c 	ldrb.w	r3, [r0, #60]	; 0x3c
 8003f78:	2b01      	cmp	r3, #1
 8003f7a:	d073      	beq.n	8004064 <HAL_TIM_ConfigClockSource+0xf0>
 8003f7c:	4602      	mov	r2, r0
 8003f7e:	b430      	push	{r4, r5}
 8003f80:	2302      	movs	r3, #2
 8003f82:	6804      	ldr	r4, [r0, #0]
 8003f84:	f882 303d 	strb.w	r3, [r2, #61]	; 0x3d
 8003f88:	2001      	movs	r0, #1
 8003f8a:	f882 003c 	strb.w	r0, [r2, #60]	; 0x3c
 8003f8e:	68a5      	ldr	r5, [r4, #8]
 8003f90:	4b4f      	ldr	r3, [pc, #316]	; (80040d0 <HAL_TIM_ConfigClockSource+0x15c>)
 8003f92:	402b      	ands	r3, r5
 8003f94:	60a3      	str	r3, [r4, #8]
 8003f96:	680b      	ldr	r3, [r1, #0]
 8003f98:	2b60      	cmp	r3, #96	; 0x60
 8003f9a:	d065      	beq.n	8004068 <HAL_TIM_ConfigClockSource+0xf4>
 8003f9c:	d824      	bhi.n	8003fe8 <HAL_TIM_ConfigClockSource+0x74>
 8003f9e:	2b40      	cmp	r3, #64	; 0x40
 8003fa0:	d07c      	beq.n	800409c <HAL_TIM_ConfigClockSource+0x128>
 8003fa2:	d94b      	bls.n	800403c <HAL_TIM_ConfigClockSource+0xc8>
 8003fa4:	2b50      	cmp	r3, #80	; 0x50
 8003fa6:	d117      	bne.n	8003fd8 <HAL_TIM_ConfigClockSource+0x64>
 8003fa8:	684b      	ldr	r3, [r1, #4]
 8003faa:	68cd      	ldr	r5, [r1, #12]
 8003fac:	6a21      	ldr	r1, [r4, #32]
 8003fae:	f021 010a 	bic.w	r1, r1, #10
 8003fb2:	4319      	orrs	r1, r3
 8003fb4:	6a23      	ldr	r3, [r4, #32]
 8003fb6:	f023 0301 	bic.w	r3, r3, #1
 8003fba:	6223      	str	r3, [r4, #32]
 8003fbc:	69a3      	ldr	r3, [r4, #24]
 8003fbe:	f023 03f0 	bic.w	r3, r3, #240	; 0xf0
 8003fc2:	ea43 1305 	orr.w	r3, r3, r5, lsl #4
 8003fc6:	61a3      	str	r3, [r4, #24]
 8003fc8:	6221      	str	r1, [r4, #32]
 8003fca:	68a3      	ldr	r3, [r4, #8]
 8003fcc:	f023 0370 	bic.w	r3, r3, #112	; 0x70
 8003fd0:	f043 0357 	orr.w	r3, r3, #87	; 0x57
 8003fd4:	2000      	movs	r0, #0
 8003fd6:	60a3      	str	r3, [r4, #8]
 8003fd8:	2101      	movs	r1, #1
 8003fda:	2300      	movs	r3, #0
 8003fdc:	f882 103d 	strb.w	r1, [r2, #61]	; 0x3d
 8003fe0:	f882 303c 	strb.w	r3, [r2, #60]	; 0x3c
 8003fe4:	bc30      	pop	{r4, r5}
 8003fe6:	4770      	bx	lr
 8003fe8:	f5b3 5f80 	cmp.w	r3, #4096	; 0x1000
 8003fec:	d038      	beq.n	8004060 <HAL_TIM_ConfigClockSource+0xec>
 8003fee:	f5b3 5f00 	cmp.w	r3, #8192	; 0x2000
 8003ff2:	d110      	bne.n	8004016 <HAL_TIM_ConfigClockSource+0xa2>
 8003ff4:	e9d1 5301 	ldrd	r5, r3, [r1, #4]
 8003ff8:	68a0      	ldr	r0, [r4, #8]
 8003ffa:	432b      	orrs	r3, r5
 8003ffc:	68cd      	ldr	r5, [r1, #12]
 8003ffe:	f420 417f 	bic.w	r1, r0, #65280	; 0xff00
 8004002:	ea43 2305 	orr.w	r3, r3, r5, lsl #8
 8004006:	430b      	orrs	r3, r1
 8004008:	60a3      	str	r3, [r4, #8]
 800400a:	68a3      	ldr	r3, [r4, #8]
 800400c:	f443 4380 	orr.w	r3, r3, #16384	; 0x4000
 8004010:	2000      	movs	r0, #0
 8004012:	60a3      	str	r3, [r4, #8]
 8004014:	e7e0      	b.n	8003fd8 <HAL_TIM_ConfigClockSource+0x64>
 8004016:	2b70      	cmp	r3, #112	; 0x70
 8004018:	d1de      	bne.n	8003fd8 <HAL_TIM_ConfigClockSource+0x64>
 800401a:	e9d1 5301 	ldrd	r5, r3, [r1, #4]
 800401e:	68a0      	ldr	r0, [r4, #8]
 8004020:	432b      	orrs	r3, r5
 8004022:	68cd      	ldr	r5, [r1, #12]
 8004024:	f420 417f 	bic.w	r1, r0, #65280	; 0xff00
 8004028:	ea43 2305 	orr.w	r3, r3, r5, lsl #8
 800402c:	430b      	orrs	r3, r1
 800402e:	60a3      	str	r3, [r4, #8]
 8004030:	68a3      	ldr	r3, [r4, #8]
 8004032:	f043 0377 	orr.w	r3, r3, #119	; 0x77
 8004036:	2000      	movs	r0, #0
 8004038:	60a3      	str	r3, [r4, #8]
 800403a:	e7cd      	b.n	8003fd8 <HAL_TIM_ConfigClockSource+0x64>
 800403c:	2b20      	cmp	r3, #32
 800403e:	d002      	beq.n	8004046 <HAL_TIM_ConfigClockSource+0xd2>
 8004040:	d90a      	bls.n	8004058 <HAL_TIM_ConfigClockSource+0xe4>
 8004042:	2b30      	cmp	r3, #48	; 0x30
 8004044:	d1c8      	bne.n	8003fd8 <HAL_TIM_ConfigClockSource+0x64>
 8004046:	68a1      	ldr	r1, [r4, #8]
 8004048:	f021 0170 	bic.w	r1, r1, #112	; 0x70
 800404c:	430b      	orrs	r3, r1
 800404e:	f043 0307 	orr.w	r3, r3, #7
 8004052:	2000      	movs	r0, #0
 8004054:	60a3      	str	r3, [r4, #8]
 8004056:	e7bf      	b.n	8003fd8 <HAL_TIM_ConfigClockSource+0x64>
 8004058:	f033 0110 	bics.w	r1, r3, #16
 800405c:	d1bc      	bne.n	8003fd8 <HAL_TIM_ConfigClockSource+0x64>
 800405e:	e7f2      	b.n	8004046 <HAL_TIM_ConfigClockSource+0xd2>
 8004060:	2000      	movs	r0, #0
 8004062:	e7b9      	b.n	8003fd8 <HAL_TIM_ConfigClockSource+0x64>
 8004064:	2002      	movs	r0, #2
 8004066:	4770      	bx	lr
 8004068:	6a23      	ldr	r3, [r4, #32]
 800406a:	6848      	ldr	r0, [r1, #4]
 800406c:	68cd      	ldr	r5, [r1, #12]
 800406e:	6a21      	ldr	r1, [r4, #32]
 8004070:	f021 0110 	bic.w	r1, r1, #16
 8004074:	6221      	str	r1, [r4, #32]
 8004076:	69a1      	ldr	r1, [r4, #24]
 8004078:	f023 03a0 	bic.w	r3, r3, #160	; 0xa0
 800407c:	f421 4170 	bic.w	r1, r1, #61440	; 0xf000
 8004080:	ea43 1300 	orr.w	r3, r3, r0, lsl #4
 8004084:	ea41 3105 	orr.w	r1, r1, r5, lsl #12
 8004088:	61a1      	str	r1, [r4, #24]
 800408a:	6223      	str	r3, [r4, #32]
 800408c:	68a3      	ldr	r3, [r4, #8]
 800408e:	f023 0370 	bic.w	r3, r3, #112	; 0x70
 8004092:	f043 0367 	orr.w	r3, r3, #103	; 0x67
 8004096:	2000      	movs	r0, #0
 8004098:	60a3      	str	r3, [r4, #8]
 800409a:	e79d      	b.n	8003fd8 <HAL_TIM_ConfigClockSource+0x64>
 800409c:	684b      	ldr	r3, [r1, #4]
 800409e:	68cd      	ldr	r5, [r1, #12]
 80040a0:	6a21      	ldr	r1, [r4, #32]
 80040a2:	f021 010a 	bic.w	r1, r1, #10
 80040a6:	4319      	orrs	r1, r3
 80040a8:	6a23      	ldr	r3, [r4, #32]
 80040aa:	f023 0301 	bic.w	r3, r3, #1
 80040ae:	6223      	str	r3, [r4, #32]
 80040b0:	69a3      	ldr	r3, [r4, #24]
 80040b2:	f023 03f0 	bic.w	r3, r3, #240	; 0xf0
 80040b6:	ea43 1305 	orr.w	r3, r3, r5, lsl #4
 80040ba:	61a3      	str	r3, [r4, #24]
 80040bc:	6221      	str	r1, [r4, #32]
 80040be:	68a3      	ldr	r3, [r4, #8]
 80040c0:	f023 0370 	bic.w	r3, r3, #112	; 0x70
 80040c4:	f043 0347 	orr.w	r3, r3, #71	; 0x47
 80040c8:	2000      	movs	r0, #0
 80040ca:	60a3      	str	r3, [r4, #8]
 80040cc:	e784      	b.n	8003fd8 <HAL_TIM_ConfigClockSource+0x64>
 80040ce:	bf00      	nop
 80040d0:	fffe0088 	.word	0xfffe0088

080040d4 <HAL_TIM_OC_DelayElapsedCallback>:
 80040d4:	4770      	bx	lr
 80040d6:	bf00      	nop

080040d8 <HAL_TIM_IC_CaptureCallback>:
 80040d8:	4770      	bx	lr
 80040da:	bf00      	nop

080040dc <HAL_TIM_PWM_PulseFinishedCallback>:
 80040dc:	4770      	bx	lr
 80040de:	bf00      	nop

080040e0 <HAL_TIM_TriggerCallback>:
 80040e0:	4770      	bx	lr
 80040e2:	bf00      	nop

080040e4 <HAL_TIM_IRQHandler>:
 80040e4:	6803      	ldr	r3, [r0, #0]
 80040e6:	b570      	push	{r4, r5, r6, lr}
 80040e8:	68de      	ldr	r6, [r3, #12]
 80040ea:	691c      	ldr	r4, [r3, #16]
 80040ec:	07a1      	lsls	r1, r4, #30
 80040ee:	4605      	mov	r5, r0
 80040f0:	d501      	bpl.n	80040f6 <HAL_TIM_IRQHandler+0x12>
 80040f2:	07b2      	lsls	r2, r6, #30
 80040f4:	d454      	bmi.n	80041a0 <HAL_TIM_IRQHandler+0xbc>
 80040f6:	0762      	lsls	r2, r4, #29
 80040f8:	d501      	bpl.n	80040fe <HAL_TIM_IRQHandler+0x1a>
 80040fa:	0773      	lsls	r3, r6, #29
 80040fc:	d43d      	bmi.n	800417a <HAL_TIM_IRQHandler+0x96>
 80040fe:	0720      	lsls	r0, r4, #28
 8004100:	d501      	bpl.n	8004106 <HAL_TIM_IRQHandler+0x22>
 8004102:	0731      	lsls	r1, r6, #28
 8004104:	d427      	bmi.n	8004156 <HAL_TIM_IRQHandler+0x72>
 8004106:	06e3      	lsls	r3, r4, #27
 8004108:	d501      	bpl.n	800410e <HAL_TIM_IRQHandler+0x2a>
 800410a:	06f0      	lsls	r0, r6, #27
 800410c:	d410      	bmi.n	8004130 <HAL_TIM_IRQHandler+0x4c>
 800410e:	07e1      	lsls	r1, r4, #31
 8004110:	d501      	bpl.n	8004116 <HAL_TIM_IRQHandler+0x32>
 8004112:	07f2      	lsls	r2, r6, #31
 8004114:	d462      	bmi.n	80041dc <HAL_TIM_IRQHandler+0xf8>
 8004116:	0623      	lsls	r3, r4, #24
 8004118:	d552      	bpl.n	80041c0 <HAL_TIM_IRQHandler+0xdc>
 800411a:	0630      	lsls	r0, r6, #24
 800411c:	d466      	bmi.n	80041ec <HAL_TIM_IRQHandler+0x108>
 800411e:	0660      	lsls	r0, r4, #25
 8004120:	d501      	bpl.n	8004126 <HAL_TIM_IRQHandler+0x42>
 8004122:	0671      	lsls	r1, r6, #25
 8004124:	d473      	bmi.n	800420e <HAL_TIM_IRQHandler+0x12a>
 8004126:	06a2      	lsls	r2, r4, #26
 8004128:	d501      	bpl.n	800412e <HAL_TIM_IRQHandler+0x4a>
 800412a:	06b3      	lsls	r3, r6, #26
 800412c:	d44d      	bmi.n	80041ca <HAL_TIM_IRQHandler+0xe6>
 800412e:	bd70      	pop	{r4, r5, r6, pc}
 8004130:	682b      	ldr	r3, [r5, #0]
 8004132:	f06f 0210 	mvn.w	r2, #16
 8004136:	611a      	str	r2, [r3, #16]
 8004138:	2208      	movs	r2, #8
 800413a:	772a      	strb	r2, [r5, #28]
 800413c:	69db      	ldr	r3, [r3, #28]
 800413e:	f413 7f40 	tst.w	r3, #768	; 0x300
 8004142:	4628      	mov	r0, r5
 8004144:	d174      	bne.n	8004230 <HAL_TIM_IRQHandler+0x14c>
 8004146:	f7ff ffc5 	bl	80040d4 <HAL_TIM_OC_DelayElapsedCallback>
 800414a:	4628      	mov	r0, r5
 800414c:	f7ff ffc6 	bl	80040dc <HAL_TIM_PWM_PulseFinishedCallback>
 8004150:	2300      	movs	r3, #0
 8004152:	772b      	strb	r3, [r5, #28]
 8004154:	e7db      	b.n	800410e <HAL_TIM_IRQHandler+0x2a>
 8004156:	682b      	ldr	r3, [r5, #0]
 8004158:	f06f 0208 	mvn.w	r2, #8
 800415c:	611a      	str	r2, [r3, #16]
 800415e:	2204      	movs	r2, #4
 8004160:	772a      	strb	r2, [r5, #28]
 8004162:	69db      	ldr	r3, [r3, #28]
 8004164:	079a      	lsls	r2, r3, #30
 8004166:	4628      	mov	r0, r5
 8004168:	d15f      	bne.n	800422a <HAL_TIM_IRQHandler+0x146>
 800416a:	f7ff ffb3 	bl	80040d4 <HAL_TIM_OC_DelayElapsedCallback>
 800416e:	4628      	mov	r0, r5
 8004170:	f7ff ffb4 	bl	80040dc <HAL_TIM_PWM_PulseFinishedCallback>
 8004174:	2300      	movs	r3, #0
 8004176:	772b      	strb	r3, [r5, #28]
 8004178:	e7c5      	b.n	8004106 <HAL_TIM_IRQHandler+0x22>
 800417a:	682b      	ldr	r3, [r5, #0]
 800417c:	f06f 0204 	mvn.w	r2, #4
 8004180:	611a      	str	r2, [r3, #16]
 8004182:	2202      	movs	r2, #2
 8004184:	772a      	strb	r2, [r5, #28]
 8004186:	699b      	ldr	r3, [r3, #24]
 8004188:	f413 7f40 	tst.w	r3, #768	; 0x300
 800418c:	4628      	mov	r0, r5
 800418e:	d149      	bne.n	8004224 <HAL_TIM_IRQHandler+0x140>
 8004190:	f7ff ffa0 	bl	80040d4 <HAL_TIM_OC_DelayElapsedCallback>
 8004194:	4628      	mov	r0, r5
 8004196:	f7ff ffa1 	bl	80040dc <HAL_TIM_PWM_PulseFinishedCallback>
 800419a:	2300      	movs	r3, #0
 800419c:	772b      	strb	r3, [r5, #28]
 800419e:	e7ae      	b.n	80040fe <HAL_TIM_IRQHandler+0x1a>
 80041a0:	f06f 0202 	mvn.w	r2, #2
 80041a4:	611a      	str	r2, [r3, #16]
 80041a6:	2201      	movs	r2, #1
 80041a8:	7702      	strb	r2, [r0, #28]
 80041aa:	699b      	ldr	r3, [r3, #24]
 80041ac:	0799      	lsls	r1, r3, #30
 80041ae:	d136      	bne.n	800421e <HAL_TIM_IRQHandler+0x13a>
 80041b0:	f7ff ff90 	bl	80040d4 <HAL_TIM_OC_DelayElapsedCallback>
 80041b4:	4628      	mov	r0, r5
 80041b6:	f7ff ff91 	bl	80040dc <HAL_TIM_PWM_PulseFinishedCallback>
 80041ba:	2300      	movs	r3, #0
 80041bc:	772b      	strb	r3, [r5, #28]
 80041be:	e79a      	b.n	80040f6 <HAL_TIM_IRQHandler+0x12>
 80041c0:	05e2      	lsls	r2, r4, #23
 80041c2:	d5ac      	bpl.n	800411e <HAL_TIM_IRQHandler+0x3a>
 80041c4:	0633      	lsls	r3, r6, #24
 80041c6:	d41a      	bmi.n	80041fe <HAL_TIM_IRQHandler+0x11a>
 80041c8:	e7a9      	b.n	800411e <HAL_TIM_IRQHandler+0x3a>
 80041ca:	682b      	ldr	r3, [r5, #0]
 80041cc:	f06f 0220 	mvn.w	r2, #32
 80041d0:	4628      	mov	r0, r5
 80041d2:	611a      	str	r2, [r3, #16]
 80041d4:	e8bd 4070 	ldmia.w	sp!, {r4, r5, r6, lr}
 80041d8:	f000 b878 	b.w	80042cc <HAL_TIMEx_CommutCallback>
 80041dc:	682b      	ldr	r3, [r5, #0]
 80041de:	f06f 0201 	mvn.w	r2, #1
 80041e2:	611a      	str	r2, [r3, #16]
 80041e4:	4628      	mov	r0, r5
 80041e6:	f7fc fc0f 	bl	8000a08 <HAL_TIM_PeriodElapsedCallback>
 80041ea:	e794      	b.n	8004116 <HAL_TIM_IRQHandler+0x32>
 80041ec:	682b      	ldr	r3, [r5, #0]
 80041ee:	f06f 0280 	mvn.w	r2, #128	; 0x80
 80041f2:	611a      	str	r2, [r3, #16]
 80041f4:	4628      	mov	r0, r5
 80041f6:	f000 f86b 	bl	80042d0 <HAL_TIMEx_BreakCallback>
 80041fa:	05e1      	lsls	r1, r4, #23
 80041fc:	d58f      	bpl.n	800411e <HAL_TIM_IRQHandler+0x3a>
 80041fe:	682b      	ldr	r3, [r5, #0]
 8004200:	f46f 7280 	mvn.w	r2, #256	; 0x100
 8004204:	611a      	str	r2, [r3, #16]
 8004206:	4628      	mov	r0, r5
 8004208:	f000 f864 	bl	80042d4 <HAL_TIMEx_Break2Callback>
 800420c:	e787      	b.n	800411e <HAL_TIM_IRQHandler+0x3a>
 800420e:	682b      	ldr	r3, [r5, #0]
 8004210:	f06f 0240 	mvn.w	r2, #64	; 0x40
 8004214:	611a      	str	r2, [r3, #16]
 8004216:	4628      	mov	r0, r5
 8004218:	f7ff ff62 	bl	80040e0 <HAL_TIM_TriggerCallback>
 800421c:	e783      	b.n	8004126 <HAL_TIM_IRQHandler+0x42>
 800421e:	f7ff ff5b 	bl	80040d8 <HAL_TIM_IC_CaptureCallback>
 8004222:	e7ca      	b.n	80041ba <HAL_TIM_IRQHandler+0xd6>
 8004224:	f7ff ff58 	bl	80040d8 <HAL_TIM_IC_CaptureCallback>
 8004228:	e7b7      	b.n	800419a <HAL_TIM_IRQHandler+0xb6>
 800422a:	f7ff ff55 	bl	80040d8 <HAL_TIM_IC_CaptureCallback>
 800422e:	e7a1      	b.n	8004174 <HAL_TIM_IRQHandler+0x90>
 8004230:	f7ff ff52 	bl	80040d8 <HAL_TIM_IC_CaptureCallback>
 8004234:	e78c      	b.n	8004150 <HAL_TIM_IRQHandler+0x6c>
 8004236:	bf00      	nop

08004238 <HAL_TIMEx_MasterConfigSynchronization>:
 8004238:	f890 303c 	ldrb.w	r3, [r0, #60]	; 0x3c
 800423c:	2b01      	cmp	r3, #1
 800423e:	d03e      	beq.n	80042be <HAL_TIMEx_MasterConfigSynchronization+0x86>
 8004240:	b470      	push	{r4, r5, r6}
 8004242:	6802      	ldr	r2, [r0, #0]
 8004244:	4d1f      	ldr	r5, [pc, #124]	; (80042c4 <HAL_TIMEx_MasterConfigSynchronization+0x8c>)
 8004246:	2302      	movs	r3, #2
 8004248:	f880 303d 	strb.w	r3, [r0, #61]	; 0x3d
 800424c:	42aa      	cmp	r2, r5
 800424e:	6853      	ldr	r3, [r2, #4]
 8004250:	6894      	ldr	r4, [r2, #8]
 8004252:	d02a      	beq.n	80042aa <HAL_TIMEx_MasterConfigSynchronization+0x72>
 8004254:	f505 6500 	add.w	r5, r5, #2048	; 0x800
 8004258:	42aa      	cmp	r2, r5
 800425a:	d026      	beq.n	80042aa <HAL_TIMEx_MasterConfigSynchronization+0x72>
 800425c:	680e      	ldr	r6, [r1, #0]
 800425e:	f023 0370 	bic.w	r3, r3, #112	; 0x70
 8004262:	4333      	orrs	r3, r6
 8004264:	f1b2 4f80 	cmp.w	r2, #1073741824	; 0x40000000
 8004268:	6053      	str	r3, [r2, #4]
 800426a:	d010      	beq.n	800428e <HAL_TIMEx_MasterConfigSynchronization+0x56>
 800426c:	4b16      	ldr	r3, [pc, #88]	; (80042c8 <HAL_TIMEx_MasterConfigSynchronization+0x90>)
 800426e:	429a      	cmp	r2, r3
 8004270:	d00d      	beq.n	800428e <HAL_TIMEx_MasterConfigSynchronization+0x56>
 8004272:	f503 6380 	add.w	r3, r3, #1024	; 0x400
 8004276:	429a      	cmp	r2, r3
 8004278:	d009      	beq.n	800428e <HAL_TIMEx_MasterConfigSynchronization+0x56>
 800427a:	f503 6380 	add.w	r3, r3, #1024	; 0x400
 800427e:	429a      	cmp	r2, r3
 8004280:	d005      	beq.n	800428e <HAL_TIMEx_MasterConfigSynchronization+0x56>
 8004282:	42aa      	cmp	r2, r5
 8004284:	d003      	beq.n	800428e <HAL_TIMEx_MasterConfigSynchronization+0x56>
 8004286:	f503 339a 	add.w	r3, r3, #78848	; 0x13400
 800428a:	429a      	cmp	r2, r3
 800428c:	d104      	bne.n	8004298 <HAL_TIMEx_MasterConfigSynchronization+0x60>
 800428e:	688b      	ldr	r3, [r1, #8]
 8004290:	f024 0480 	bic.w	r4, r4, #128	; 0x80
 8004294:	431c      	orrs	r4, r3
 8004296:	6094      	str	r4, [r2, #8]
 8004298:	2300      	movs	r3, #0
 800429a:	2201      	movs	r2, #1
 800429c:	f880 203d 	strb.w	r2, [r0, #61]	; 0x3d
 80042a0:	f880 303c 	strb.w	r3, [r0, #60]	; 0x3c
 80042a4:	bc70      	pop	{r4, r5, r6}
 80042a6:	4618      	mov	r0, r3
 80042a8:	4770      	bx	lr
 80042aa:	684d      	ldr	r5, [r1, #4]
 80042ac:	f423 0370 	bic.w	r3, r3, #15728640	; 0xf00000
 80042b0:	432b      	orrs	r3, r5
 80042b2:	680d      	ldr	r5, [r1, #0]
 80042b4:	f023 0370 	bic.w	r3, r3, #112	; 0x70
 80042b8:	432b      	orrs	r3, r5
 80042ba:	6053      	str	r3, [r2, #4]
 80042bc:	e7e7      	b.n	800428e <HAL_TIMEx_MasterConfigSynchronization+0x56>
 80042be:	2002      	movs	r0, #2
 80042c0:	4770      	bx	lr
 80042c2:	bf00      	nop
 80042c4:	40012c00 	.word	0x40012c00
 80042c8:	40000400 	.word	0x40000400

080042cc <HAL_TIMEx_CommutCallback>:
 80042cc:	4770      	bx	lr
 80042ce:	bf00      	nop

080042d0 <HAL_TIMEx_BreakCallback>:
 80042d0:	4770      	bx	lr
 80042d2:	bf00      	nop

080042d4 <HAL_TIMEx_Break2Callback>:
 80042d4:	4770      	bx	lr
 80042d6:	bf00      	nop

080042d8 <HAL_UART_TxCpltCallback>:
 80042d8:	4770      	bx	lr
 80042da:	bf00      	nop

080042dc <HAL_UART_ErrorCallback>:
 80042dc:	4770      	bx	lr
 80042de:	bf00      	nop

080042e0 <UART_DMAAbortOnError>:
 80042e0:	b508      	push	{r3, lr}
 80042e2:	6a80      	ldr	r0, [r0, #40]	; 0x28
 80042e4:	2300      	movs	r3, #0
 80042e6:	f8a0 305a 	strh.w	r3, [r0, #90]	; 0x5a
 80042ea:	f8a0 3052 	strh.w	r3, [r0, #82]	; 0x52
 80042ee:	f7ff fff5 	bl	80042dc <HAL_UART_ErrorCallback>
 80042f2:	bd08      	pop	{r3, pc}

080042f4 <HAL_UARTEx_RxEventCallback>:
 80042f4:	4770      	bx	lr
 80042f6:	bf00      	nop

080042f8 <HAL_UART_IRQHandler>:
 80042f8:	6803      	ldr	r3, [r0, #0]
 80042fa:	69da      	ldr	r2, [r3, #28]
 80042fc:	6819      	ldr	r1, [r3, #0]
 80042fe:	f640 0c0f 	movw	ip, #2063	; 0x80f
 8004302:	ea12 0f0c 	tst.w	r2, ip
 8004306:	b570      	push	{r4, r5, r6, lr}
 8004308:	689d      	ldr	r5, [r3, #8]
 800430a:	4604      	mov	r4, r0
 800430c:	d150      	bne.n	80043b0 <HAL_UART_IRQHandler+0xb8>
 800430e:	0696      	lsls	r6, r2, #26
 8004310:	d502      	bpl.n	8004318 <HAL_UART_IRQHandler+0x20>
 8004312:	068e      	lsls	r6, r1, #26
 8004314:	f100 80e7 	bmi.w	80044e6 <HAL_UART_IRQHandler+0x1ee>
 8004318:	6e20      	ldr	r0, [r4, #96]	; 0x60
 800431a:	2801      	cmp	r0, #1
 800431c:	d024      	beq.n	8004368 <HAL_UART_IRQHandler+0x70>
 800431e:	02d6      	lsls	r6, r2, #11
 8004320:	d502      	bpl.n	8004328 <HAL_UART_IRQHandler+0x30>
 8004322:	0268      	lsls	r0, r5, #9
 8004324:	f100 80e4 	bmi.w	80044f0 <HAL_UART_IRQHandler+0x1f8>
 8004328:	0616      	lsls	r6, r2, #24
 800432a:	d414      	bmi.n	8004356 <HAL_UART_IRQHandler+0x5e>
 800432c:	0650      	lsls	r0, r2, #25
 800432e:	d501      	bpl.n	8004334 <HAL_UART_IRQHandler+0x3c>
 8004330:	064a      	lsls	r2, r1, #25
 8004332:	d400      	bmi.n	8004336 <HAL_UART_IRQHandler+0x3e>
 8004334:	bd70      	pop	{r4, r5, r6, pc}
 8004336:	e853 2f00 	ldrex	r2, [r3]
 800433a:	f022 0240 	bic.w	r2, r2, #64	; 0x40
 800433e:	e843 2100 	strex	r1, r2, [r3]
 8004342:	2900      	cmp	r1, #0
 8004344:	d1f7      	bne.n	8004336 <HAL_UART_IRQHandler+0x3e>
 8004346:	2220      	movs	r2, #32
 8004348:	2300      	movs	r3, #0
 800434a:	67e2      	str	r2, [r4, #124]	; 0x7c
 800434c:	66e3      	str	r3, [r4, #108]	; 0x6c
 800434e:	4620      	mov	r0, r4
 8004350:	f7ff ffc2 	bl	80042d8 <HAL_UART_TxCpltCallback>
 8004354:	bd70      	pop	{r4, r5, r6, pc}
 8004356:	060d      	lsls	r5, r1, #24
 8004358:	d5e8      	bpl.n	800432c <HAL_UART_IRQHandler+0x34>
 800435a:	6ee3      	ldr	r3, [r4, #108]	; 0x6c
 800435c:	2b00      	cmp	r3, #0
 800435e:	d0e9      	beq.n	8004334 <HAL_UART_IRQHandler+0x3c>
 8004360:	4620      	mov	r0, r4
 8004362:	e8bd 4070 	ldmia.w	sp!, {r4, r5, r6, lr}
 8004366:	4718      	bx	r3
 8004368:	06d6      	lsls	r6, r2, #27
 800436a:	d5d8      	bpl.n	800431e <HAL_UART_IRQHandler+0x26>
 800436c:	06c8      	lsls	r0, r1, #27
 800436e:	d5d6      	bpl.n	800431e <HAL_UART_IRQHandler+0x26>
 8004370:	2210      	movs	r2, #16
 8004372:	621a      	str	r2, [r3, #32]
 8004374:	689a      	ldr	r2, [r3, #8]
 8004376:	0651      	lsls	r1, r2, #25
 8004378:	f140 80d7 	bpl.w	800452a <HAL_UART_IRQHandler+0x232>
 800437c:	6f60      	ldr	r0, [r4, #116]	; 0x74
 800437e:	6801      	ldr	r1, [r0, #0]
 8004380:	684a      	ldr	r2, [r1, #4]
 8004382:	b292      	uxth	r2, r2
 8004384:	2a00      	cmp	r2, #0
 8004386:	d0d5      	beq.n	8004334 <HAL_UART_IRQHandler+0x3c>
 8004388:	f8b4 5058 	ldrh.w	r5, [r4, #88]	; 0x58
 800438c:	4295      	cmp	r5, r2
 800438e:	d9d1      	bls.n	8004334 <HAL_UART_IRQHandler+0x3c>
 8004390:	f8a4 205a 	strh.w	r2, [r4, #90]	; 0x5a
 8004394:	680a      	ldr	r2, [r1, #0]
 8004396:	0692      	lsls	r2, r2, #26
 8004398:	f140 80fe 	bpl.w	8004598 <HAL_UART_IRQHandler+0x2a0>
 800439c:	2302      	movs	r3, #2
 800439e:	6663      	str	r3, [r4, #100]	; 0x64
 80043a0:	f8b4 305a 	ldrh.w	r3, [r4, #90]	; 0x5a
 80043a4:	1ae9      	subs	r1, r5, r3
 80043a6:	4620      	mov	r0, r4
 80043a8:	b289      	uxth	r1, r1
 80043aa:	f7ff ffa3 	bl	80042f4 <HAL_UARTEx_RxEventCallback>
 80043ae:	bd70      	pop	{r4, r5, r6, pc}
 80043b0:	4895      	ldr	r0, [pc, #596]	; (8004608 <HAL_UART_IRQHandler+0x310>)
 80043b2:	f005 0601 	and.w	r6, r5, #1
 80043b6:	4008      	ands	r0, r1
 80043b8:	4330      	orrs	r0, r6
 80043ba:	d0ad      	beq.n	8004318 <HAL_UART_IRQHandler+0x20>
 80043bc:	07d5      	lsls	r5, r2, #31
 80043be:	d509      	bpl.n	80043d4 <HAL_UART_IRQHandler+0xdc>
 80043c0:	05c8      	lsls	r0, r1, #23
 80043c2:	d507      	bpl.n	80043d4 <HAL_UART_IRQHandler+0xdc>
 80043c4:	2001      	movs	r0, #1
 80043c6:	6218      	str	r0, [r3, #32]
 80043c8:	f8d4 0084 	ldr.w	r0, [r4, #132]	; 0x84
 80043cc:	f040 0001 	orr.w	r0, r0, #1
 80043d0:	f8c4 0084 	str.w	r0, [r4, #132]	; 0x84
 80043d4:	0795      	lsls	r5, r2, #30
 80043d6:	f140 8081 	bpl.w	80044dc <HAL_UART_IRQHandler+0x1e4>
 80043da:	b18e      	cbz	r6, 8004400 <HAL_UART_IRQHandler+0x108>
 80043dc:	2002      	movs	r0, #2
 80043de:	6218      	str	r0, [r3, #32]
 80043e0:	f8d4 0084 	ldr.w	r0, [r4, #132]	; 0x84
 80043e4:	f040 0004 	orr.w	r0, r0, #4
 80043e8:	f8c4 0084 	str.w	r0, [r4, #132]	; 0x84
 80043ec:	0750      	lsls	r0, r2, #29
 80043ee:	d507      	bpl.n	8004400 <HAL_UART_IRQHandler+0x108>
 80043f0:	2004      	movs	r0, #4
 80043f2:	6218      	str	r0, [r3, #32]
 80043f4:	f8d4 0084 	ldr.w	r0, [r4, #132]	; 0x84
 80043f8:	f040 0002 	orr.w	r0, r0, #2
 80043fc:	f8c4 0084 	str.w	r0, [r4, #132]	; 0x84
 8004400:	0710      	lsls	r0, r2, #28
 8004402:	d50b      	bpl.n	800441c <HAL_UART_IRQHandler+0x124>
 8004404:	f001 0020 	and.w	r0, r1, #32
 8004408:	4330      	orrs	r0, r6
 800440a:	d007      	beq.n	800441c <HAL_UART_IRQHandler+0x124>
 800440c:	2008      	movs	r0, #8
 800440e:	6218      	str	r0, [r3, #32]
 8004410:	f8d4 0084 	ldr.w	r0, [r4, #132]	; 0x84
 8004414:	f040 0008 	orr.w	r0, r0, #8
 8004418:	f8c4 0084 	str.w	r0, [r4, #132]	; 0x84
 800441c:	0516      	lsls	r6, r2, #20
 800441e:	d50a      	bpl.n	8004436 <HAL_UART_IRQHandler+0x13e>
 8004420:	014d      	lsls	r5, r1, #5
 8004422:	d508      	bpl.n	8004436 <HAL_UART_IRQHandler+0x13e>
 8004424:	f44f 6000 	mov.w	r0, #2048	; 0x800
 8004428:	6218      	str	r0, [r3, #32]
 800442a:	f8d4 0084 	ldr.w	r0, [r4, #132]	; 0x84
 800442e:	f040 0020 	orr.w	r0, r0, #32
 8004432:	f8c4 0084 	str.w	r0, [r4, #132]	; 0x84
 8004436:	f8d4 0084 	ldr.w	r0, [r4, #132]	; 0x84
 800443a:	2800      	cmp	r0, #0
 800443c:	f43f af7a 	beq.w	8004334 <HAL_UART_IRQHandler+0x3c>
 8004440:	0690      	lsls	r0, r2, #26
 8004442:	d506      	bpl.n	8004452 <HAL_UART_IRQHandler+0x15a>
 8004444:	0689      	lsls	r1, r1, #26
 8004446:	d504      	bpl.n	8004452 <HAL_UART_IRQHandler+0x15a>
 8004448:	6ea2      	ldr	r2, [r4, #104]	; 0x68
 800444a:	b112      	cbz	r2, 8004452 <HAL_UART_IRQHandler+0x15a>
 800444c:	4620      	mov	r0, r4
 800444e:	4790      	blx	r2
 8004450:	6823      	ldr	r3, [r4, #0]
 8004452:	f8d4 1084 	ldr.w	r1, [r4, #132]	; 0x84
 8004456:	689a      	ldr	r2, [r3, #8]
 8004458:	f001 0128 	and.w	r1, r1, #40	; 0x28
 800445c:	f002 0240 	and.w	r2, r2, #64	; 0x40
 8004460:	ea52 0501 	orrs.w	r5, r2, r1
 8004464:	f000 80c9 	beq.w	80045fa <HAL_UART_IRQHandler+0x302>
 8004468:	e853 2f00 	ldrex	r2, [r3]
 800446c:	f422 7290 	bic.w	r2, r2, #288	; 0x120
 8004470:	e843 2100 	strex	r1, r2, [r3]
 8004474:	2900      	cmp	r1, #0
 8004476:	d1f7      	bne.n	8004468 <HAL_UART_IRQHandler+0x170>
 8004478:	f103 0208 	add.w	r2, r3, #8
 800447c:	e852 2f00 	ldrex	r2, [r2]
 8004480:	f022 0201 	bic.w	r2, r2, #1
 8004484:	f103 0008 	add.w	r0, r3, #8
 8004488:	e840 2100 	strex	r1, r2, [r0]
 800448c:	2900      	cmp	r1, #0
 800448e:	d1f3      	bne.n	8004478 <HAL_UART_IRQHandler+0x180>
 8004490:	6e22      	ldr	r2, [r4, #96]	; 0x60
 8004492:	2a01      	cmp	r2, #1
 8004494:	d034      	beq.n	8004500 <HAL_UART_IRQHandler+0x208>
 8004496:	2200      	movs	r2, #0
 8004498:	2120      	movs	r1, #32
 800449a:	f8c4 1080 	str.w	r1, [r4, #128]	; 0x80
 800449e:	6622      	str	r2, [r4, #96]	; 0x60
 80044a0:	6899      	ldr	r1, [r3, #8]
 80044a2:	66a2      	str	r2, [r4, #104]	; 0x68
 80044a4:	064a      	lsls	r2, r1, #25
 80044a6:	d53c      	bpl.n	8004522 <HAL_UART_IRQHandler+0x22a>
 80044a8:	f103 0208 	add.w	r2, r3, #8
 80044ac:	e852 2f00 	ldrex	r2, [r2]
 80044b0:	f022 0240 	bic.w	r2, r2, #64	; 0x40
 80044b4:	f103 0008 	add.w	r0, r3, #8
 80044b8:	e840 2100 	strex	r1, r2, [r0]
 80044bc:	2900      	cmp	r1, #0
 80044be:	d1f3      	bne.n	80044a8 <HAL_UART_IRQHandler+0x1b0>
 80044c0:	6f60      	ldr	r0, [r4, #116]	; 0x74
 80044c2:	b370      	cbz	r0, 8004522 <HAL_UART_IRQHandler+0x22a>
 80044c4:	4b51      	ldr	r3, [pc, #324]	; (800460c <HAL_UART_IRQHandler+0x314>)
 80044c6:	6383      	str	r3, [r0, #56]	; 0x38
 80044c8:	f7fe f86c 	bl	80025a4 <HAL_DMA_Abort_IT>
 80044cc:	2800      	cmp	r0, #0
 80044ce:	f43f af31 	beq.w	8004334 <HAL_UART_IRQHandler+0x3c>
 80044d2:	6f60      	ldr	r0, [r4, #116]	; 0x74
 80044d4:	e8bd 4070 	ldmia.w	sp!, {r4, r5, r6, lr}
 80044d8:	6b83      	ldr	r3, [r0, #56]	; 0x38
 80044da:	4718      	bx	r3
 80044dc:	0755      	lsls	r5, r2, #29
 80044de:	d58f      	bpl.n	8004400 <HAL_UART_IRQHandler+0x108>
 80044e0:	2e00      	cmp	r6, #0
 80044e2:	d185      	bne.n	80043f0 <HAL_UART_IRQHandler+0xf8>
 80044e4:	e78c      	b.n	8004400 <HAL_UART_IRQHandler+0x108>
 80044e6:	6e83      	ldr	r3, [r0, #104]	; 0x68
 80044e8:	2b00      	cmp	r3, #0
 80044ea:	f47f af3a 	bne.w	8004362 <HAL_UART_IRQHandler+0x6a>
 80044ee:	e721      	b.n	8004334 <HAL_UART_IRQHandler+0x3c>
 80044f0:	f44f 1280 	mov.w	r2, #1048576	; 0x100000
 80044f4:	4620      	mov	r0, r4
 80044f6:	621a      	str	r2, [r3, #32]
 80044f8:	e8bd 4070 	ldmia.w	sp!, {r4, r5, r6, lr}
 80044fc:	f000 bba0 	b.w	8004c40 <HAL_UARTEx_WakeupCallback>
 8004500:	e853 2f00 	ldrex	r2, [r3]
 8004504:	f022 0210 	bic.w	r2, r2, #16
 8004508:	e843 2100 	strex	r1, r2, [r3]
 800450c:	2900      	cmp	r1, #0
 800450e:	d0c2      	beq.n	8004496 <HAL_UART_IRQHandler+0x19e>
 8004510:	e853 2f00 	ldrex	r2, [r3]
 8004514:	f022 0210 	bic.w	r2, r2, #16
 8004518:	e843 2100 	strex	r1, r2, [r3]
 800451c:	2900      	cmp	r1, #0
 800451e:	d1ef      	bne.n	8004500 <HAL_UART_IRQHandler+0x208>
 8004520:	e7b9      	b.n	8004496 <HAL_UART_IRQHandler+0x19e>
 8004522:	4620      	mov	r0, r4
 8004524:	f7ff feda 	bl	80042dc <HAL_UART_ErrorCallback>
 8004528:	bd70      	pop	{r4, r5, r6, pc}
 800452a:	f8b4 105a 	ldrh.w	r1, [r4, #90]	; 0x5a
 800452e:	f8b4 205a 	ldrh.w	r2, [r4, #90]	; 0x5a
 8004532:	f8b4 0058 	ldrh.w	r0, [r4, #88]	; 0x58
 8004536:	b292      	uxth	r2, r2
 8004538:	b289      	uxth	r1, r1
 800453a:	2a00      	cmp	r2, #0
 800453c:	f43f aefa 	beq.w	8004334 <HAL_UART_IRQHandler+0x3c>
 8004540:	1a41      	subs	r1, r0, r1
 8004542:	b289      	uxth	r1, r1
 8004544:	2900      	cmp	r1, #0
 8004546:	f43f aef5 	beq.w	8004334 <HAL_UART_IRQHandler+0x3c>
 800454a:	e853 2f00 	ldrex	r2, [r3]
 800454e:	f422 7290 	bic.w	r2, r2, #288	; 0x120
 8004552:	e843 2000 	strex	r0, r2, [r3]
 8004556:	2800      	cmp	r0, #0
 8004558:	d1f7      	bne.n	800454a <HAL_UART_IRQHandler+0x252>
 800455a:	f103 0208 	add.w	r2, r3, #8
 800455e:	e852 2f00 	ldrex	r2, [r2]
 8004562:	f022 0201 	bic.w	r2, r2, #1
 8004566:	f103 0508 	add.w	r5, r3, #8
 800456a:	e845 2000 	strex	r0, r2, [r5]
 800456e:	2800      	cmp	r0, #0
 8004570:	d1f3      	bne.n	800455a <HAL_UART_IRQHandler+0x262>
 8004572:	2220      	movs	r2, #32
 8004574:	f8c4 2080 	str.w	r2, [r4, #128]	; 0x80
 8004578:	66a0      	str	r0, [r4, #104]	; 0x68
 800457a:	6620      	str	r0, [r4, #96]	; 0x60
 800457c:	e853 2f00 	ldrex	r2, [r3]
 8004580:	f022 0210 	bic.w	r2, r2, #16
 8004584:	e843 2000 	strex	r0, r2, [r3]
 8004588:	2800      	cmp	r0, #0
 800458a:	d1f7      	bne.n	800457c <HAL_UART_IRQHandler+0x284>
 800458c:	2302      	movs	r3, #2
 800458e:	6663      	str	r3, [r4, #100]	; 0x64
 8004590:	4620      	mov	r0, r4
 8004592:	f7ff feaf 	bl	80042f4 <HAL_UARTEx_RxEventCallback>
 8004596:	bd70      	pop	{r4, r5, r6, pc}
 8004598:	e853 2f00 	ldrex	r2, [r3]
 800459c:	f422 7280 	bic.w	r2, r2, #256	; 0x100
 80045a0:	e843 2100 	strex	r1, r2, [r3]
 80045a4:	2900      	cmp	r1, #0
 80045a6:	d1f7      	bne.n	8004598 <HAL_UART_IRQHandler+0x2a0>
 80045a8:	f103 0208 	add.w	r2, r3, #8
 80045ac:	e852 2f00 	ldrex	r2, [r2]
 80045b0:	f022 0201 	bic.w	r2, r2, #1
 80045b4:	f103 0508 	add.w	r5, r3, #8
 80045b8:	e845 2100 	strex	r1, r2, [r5]
 80045bc:	2900      	cmp	r1, #0
 80045be:	d1f3      	bne.n	80045a8 <HAL_UART_IRQHandler+0x2b0>
 80045c0:	f103 0208 	add.w	r2, r3, #8
 80045c4:	e852 2f00 	ldrex	r2, [r2]
 80045c8:	f022 0240 	bic.w	r2, r2, #64	; 0x40
 80045cc:	f103 0508 	add.w	r5, r3, #8
 80045d0:	e845 2100 	strex	r1, r2, [r5]
 80045d4:	2900      	cmp	r1, #0
 80045d6:	d1f3      	bne.n	80045c0 <HAL_UART_IRQHandler+0x2c8>
 80045d8:	2220      	movs	r2, #32
 80045da:	f8c4 2080 	str.w	r2, [r4, #128]	; 0x80
 80045de:	6621      	str	r1, [r4, #96]	; 0x60
 80045e0:	e853 2f00 	ldrex	r2, [r3]
 80045e4:	f022 0210 	bic.w	r2, r2, #16
 80045e8:	e843 2100 	strex	r1, r2, [r3]
 80045ec:	2900      	cmp	r1, #0
 80045ee:	d1f7      	bne.n	80045e0 <HAL_UART_IRQHandler+0x2e8>
 80045f0:	f7fd ffb2 	bl	8002558 <HAL_DMA_Abort>
 80045f4:	f8b4 5058 	ldrh.w	r5, [r4, #88]	; 0x58
 80045f8:	e6d0      	b.n	800439c <HAL_UART_IRQHandler+0xa4>
 80045fa:	4620      	mov	r0, r4
 80045fc:	f7ff fe6e 	bl	80042dc <HAL_UART_ErrorCallback>
 8004600:	f8c4 5084 	str.w	r5, [r4, #132]	; 0x84
 8004604:	bd70      	pop	{r4, r5, r6, pc}
 8004606:	bf00      	nop
 8004608:	04000120 	.word	0x04000120
 800460c:	080042e1 	.word	0x080042e1

08004610 <UART_SetConfig>:
 8004610:	b538      	push	{r3, r4, r5, lr}
 8004612:	4604      	mov	r4, r0
 8004614:	6803      	ldr	r3, [r0, #0]
 8004616:	6882      	ldr	r2, [r0, #8]
 8004618:	6900      	ldr	r0, [r0, #16]
 800461a:	6961      	ldr	r1, [r4, #20]
 800461c:	681d      	ldr	r5, [r3, #0]
 800461e:	4302      	orrs	r2, r0
 8004620:	430a      	orrs	r2, r1
 8004622:	69e0      	ldr	r0, [r4, #28]
 8004624:	499f      	ldr	r1, [pc, #636]	; (80048a4 <UART_SetConfig+0x294>)
 8004626:	4302      	orrs	r2, r0
 8004628:	4029      	ands	r1, r5
 800462a:	430a      	orrs	r2, r1
 800462c:	601a      	str	r2, [r3, #0]
 800462e:	685a      	ldr	r2, [r3, #4]
 8004630:	68e1      	ldr	r1, [r4, #12]
 8004632:	f422 5240 	bic.w	r2, r2, #12288	; 0x3000
 8004636:	430a      	orrs	r2, r1
 8004638:	499b      	ldr	r1, [pc, #620]	; (80048a8 <UART_SetConfig+0x298>)
 800463a:	605a      	str	r2, [r3, #4]
 800463c:	428b      	cmp	r3, r1
 800463e:	69a2      	ldr	r2, [r4, #24]
 8004640:	6899      	ldr	r1, [r3, #8]
 8004642:	d071      	beq.n	8004728 <UART_SetConfig+0x118>
 8004644:	6a25      	ldr	r5, [r4, #32]
 8004646:	f421 6130 	bic.w	r1, r1, #2816	; 0xb00
 800464a:	432a      	orrs	r2, r5
 800464c:	430a      	orrs	r2, r1
 800464e:	4997      	ldr	r1, [pc, #604]	; (80048ac <UART_SetConfig+0x29c>)
 8004650:	609a      	str	r2, [r3, #8]
 8004652:	428b      	cmp	r3, r1
 8004654:	d024      	beq.n	80046a0 <UART_SetConfig+0x90>
 8004656:	4a96      	ldr	r2, [pc, #600]	; (80048b0 <UART_SetConfig+0x2a0>)
 8004658:	4293      	cmp	r3, r2
 800465a:	d043      	beq.n	80046e4 <UART_SetConfig+0xd4>
 800465c:	4a95      	ldr	r2, [pc, #596]	; (80048b4 <UART_SetConfig+0x2a4>)
 800465e:	4293      	cmp	r3, r2
 8004660:	f000 80d7 	beq.w	8004812 <UART_SetConfig+0x202>
 8004664:	4a94      	ldr	r2, [pc, #592]	; (80048b8 <UART_SetConfig+0x2a8>)
 8004666:	4293      	cmp	r3, r2
 8004668:	f000 80a1 	beq.w	80047ae <UART_SetConfig+0x19e>
 800466c:	4a93      	ldr	r2, [pc, #588]	; (80048bc <UART_SetConfig+0x2ac>)
 800466e:	4293      	cmp	r3, r2
 8004670:	d111      	bne.n	8004696 <UART_SetConfig+0x86>
 8004672:	4b93      	ldr	r3, [pc, #588]	; (80048c0 <UART_SetConfig+0x2b0>)
 8004674:	f8d3 3088 	ldr.w	r3, [r3, #136]	; 0x88
 8004678:	f403 7340 	and.w	r3, r3, #768	; 0x300
 800467c:	f5b3 7f00 	cmp.w	r3, #512	; 0x200
 8004680:	f000 80ff 	beq.w	8004882 <UART_SetConfig+0x272>
 8004684:	f200 80be 	bhi.w	8004804 <UART_SetConfig+0x1f4>
 8004688:	2b00      	cmp	r3, #0
 800468a:	f000 80dc 	beq.w	8004846 <UART_SetConfig+0x236>
 800468e:	f5b3 7f80 	cmp.w	r3, #256	; 0x100
 8004692:	f000 8099 	beq.w	80047c8 <UART_SetConfig+0x1b8>
 8004696:	2001      	movs	r0, #1
 8004698:	2200      	movs	r2, #0
 800469a:	e9c4 221a 	strd	r2, r2, [r4, #104]	; 0x68
 800469e:	bd38      	pop	{r3, r4, r5, pc}
 80046a0:	4b87      	ldr	r3, [pc, #540]	; (80048c0 <UART_SetConfig+0x2b0>)
 80046a2:	f8d3 3088 	ldr.w	r3, [r3, #136]	; 0x88
 80046a6:	f003 0303 	and.w	r3, r3, #3
 80046aa:	3b01      	subs	r3, #1
 80046ac:	2b02      	cmp	r3, #2
 80046ae:	d978      	bls.n	80047a2 <UART_SetConfig+0x192>
 80046b0:	f5b0 4f00 	cmp.w	r0, #32768	; 0x8000
 80046b4:	f000 80f0 	beq.w	8004898 <UART_SetConfig+0x288>
 80046b8:	f7ff f84c 	bl	8003754 <HAL_RCC_GetPCLK2Freq>
 80046bc:	2800      	cmp	r0, #0
 80046be:	d048      	beq.n	8004752 <UART_SetConfig+0x142>
 80046c0:	6862      	ldr	r2, [r4, #4]
 80046c2:	f64f 71ef 	movw	r1, #65519	; 0xffef
 80046c6:	eb00 0052 	add.w	r0, r0, r2, lsr #1
 80046ca:	fbb0 f2f2 	udiv	r2, r0, r2
 80046ce:	f1a2 0310 	sub.w	r3, r2, #16
 80046d2:	428b      	cmp	r3, r1
 80046d4:	d8df      	bhi.n	8004696 <UART_SetConfig+0x86>
 80046d6:	6823      	ldr	r3, [r4, #0]
 80046d8:	60da      	str	r2, [r3, #12]
 80046da:	2200      	movs	r2, #0
 80046dc:	e9c4 221a 	strd	r2, r2, [r4, #104]	; 0x68
 80046e0:	2000      	movs	r0, #0
 80046e2:	bd38      	pop	{r3, r4, r5, pc}
 80046e4:	4b76      	ldr	r3, [pc, #472]	; (80048c0 <UART_SetConfig+0x2b0>)
 80046e6:	4a77      	ldr	r2, [pc, #476]	; (80048c4 <UART_SetConfig+0x2b4>)
 80046e8:	f8d3 3088 	ldr.w	r3, [r3, #136]	; 0x88
 80046ec:	f003 030c 	and.w	r3, r3, #12
 80046f0:	5cd3      	ldrb	r3, [r2, r3]
 80046f2:	f5b0 4f00 	cmp.w	r0, #32768	; 0x8000
 80046f6:	d06d      	beq.n	80047d4 <UART_SetConfig+0x1c4>
 80046f8:	2b08      	cmp	r3, #8
 80046fa:	d8cc      	bhi.n	8004696 <UART_SetConfig+0x86>
 80046fc:	a201      	add	r2, pc, #4	; (adr r2, 8004704 <UART_SetConfig+0xf4>)
 80046fe:	f852 f023 	ldr.w	pc, [r2, r3, lsl #2]
 8004702:	bf00      	nop
 8004704:	0800480d 	.word	0x0800480d
 8004708:	080046b9 	.word	0x080046b9
 800470c:	08004889 	.word	0x08004889
 8004710:	08004697 	.word	0x08004697
 8004714:	080047cf 	.word	0x080047cf
 8004718:	08004697 	.word	0x08004697
 800471c:	08004697 	.word	0x08004697
 8004720:	08004697 	.word	0x08004697
 8004724:	08004837 	.word	0x08004837
 8004728:	f421 6130 	bic.w	r1, r1, #2816	; 0xb00
 800472c:	4864      	ldr	r0, [pc, #400]	; (80048c0 <UART_SetConfig+0x2b0>)
 800472e:	430a      	orrs	r2, r1
 8004730:	609a      	str	r2, [r3, #8]
 8004732:	f8d0 3088 	ldr.w	r3, [r0, #136]	; 0x88
 8004736:	f403 6340 	and.w	r3, r3, #3072	; 0xc00
 800473a:	f5b3 6f00 	cmp.w	r3, #2048	; 0x800
 800473e:	f000 8080 	beq.w	8004842 <UART_SetConfig+0x232>
 8004742:	d80b      	bhi.n	800475c <UART_SetConfig+0x14c>
 8004744:	b383      	cbz	r3, 80047a8 <UART_SetConfig+0x198>
 8004746:	f5b3 6f80 	cmp.w	r3, #1024	; 0x400
 800474a:	d1a4      	bne.n	8004696 <UART_SetConfig+0x86>
 800474c:	f7fe fbfa 	bl	8002f44 <HAL_RCC_GetSysClockFreq>
 8004750:	b948      	cbnz	r0, 8004766 <UART_SetConfig+0x156>
 8004752:	2200      	movs	r2, #0
 8004754:	e9c4 221a 	strd	r2, r2, [r4, #104]	; 0x68
 8004758:	2000      	movs	r0, #0
 800475a:	bd38      	pop	{r3, r4, r5, pc}
 800475c:	f5b3 6f40 	cmp.w	r3, #3072	; 0xc00
 8004760:	d199      	bne.n	8004696 <UART_SetConfig+0x86>
 8004762:	f44f 4000 	mov.w	r0, #32768	; 0x8000
 8004766:	6862      	ldr	r2, [r4, #4]
 8004768:	eb02 0342 	add.w	r3, r2, r2, lsl #1
 800476c:	4283      	cmp	r3, r0
 800476e:	d892      	bhi.n	8004696 <UART_SetConfig+0x86>
 8004770:	ebb0 3f02 	cmp.w	r0, r2, lsl #12
 8004774:	d88f      	bhi.n	8004696 <UART_SetConfig+0x86>
 8004776:	2500      	movs	r5, #0
 8004778:	0853      	lsrs	r3, r2, #1
 800477a:	f44f 7c80 	mov.w	ip, #256	; 0x100
 800477e:	4629      	mov	r1, r5
 8004780:	fbe0 310c 	umlal	r3, r1, r0, ip
 8004784:	4618      	mov	r0, r3
 8004786:	462b      	mov	r3, r5
 8004788:	f7fb fd26 	bl	80001d8 <__aeabi_uldivmod>
 800478c:	4a4e      	ldr	r2, [pc, #312]	; (80048c8 <UART_SetConfig+0x2b8>)
 800478e:	f5a0 7140 	sub.w	r1, r0, #768	; 0x300
 8004792:	4291      	cmp	r1, r2
 8004794:	4603      	mov	r3, r0
 8004796:	f63f af7e 	bhi.w	8004696 <UART_SetConfig+0x86>
 800479a:	6822      	ldr	r2, [r4, #0]
 800479c:	4628      	mov	r0, r5
 800479e:	60d3      	str	r3, [r2, #12]
 80047a0:	e77a      	b.n	8004698 <UART_SetConfig+0x88>
 80047a2:	4a4a      	ldr	r2, [pc, #296]	; (80048cc <UART_SetConfig+0x2bc>)
 80047a4:	5cd3      	ldrb	r3, [r2, r3]
 80047a6:	e7a4      	b.n	80046f2 <UART_SetConfig+0xe2>
 80047a8:	f7fe ffc2 	bl	8003730 <HAL_RCC_GetPCLK1Freq>
 80047ac:	e7d0      	b.n	8004750 <UART_SetConfig+0x140>
 80047ae:	4b44      	ldr	r3, [pc, #272]	; (80048c0 <UART_SetConfig+0x2b0>)
 80047b0:	f8d3 3088 	ldr.w	r3, [r3, #136]	; 0x88
 80047b4:	f003 03c0 	and.w	r3, r3, #192	; 0xc0
 80047b8:	2b80      	cmp	r3, #128	; 0x80
 80047ba:	d062      	beq.n	8004882 <UART_SetConfig+0x272>
 80047bc:	d83e      	bhi.n	800483c <UART_SetConfig+0x22c>
 80047be:	2b00      	cmp	r3, #0
 80047c0:	d041      	beq.n	8004846 <UART_SetConfig+0x236>
 80047c2:	2b40      	cmp	r3, #64	; 0x40
 80047c4:	f47f af67 	bne.w	8004696 <UART_SetConfig+0x86>
 80047c8:	f5b0 4f00 	cmp.w	r0, #32768	; 0x8000
 80047cc:	d05e      	beq.n	800488c <UART_SetConfig+0x27c>
 80047ce:	f7fe fbb9 	bl	8002f44 <HAL_RCC_GetSysClockFreq>
 80047d2:	e773      	b.n	80046bc <UART_SetConfig+0xac>
 80047d4:	2b08      	cmp	r3, #8
 80047d6:	f63f af5e 	bhi.w	8004696 <UART_SetConfig+0x86>
 80047da:	a201      	add	r2, pc, #4	; (adr r2, 80047e0 <UART_SetConfig+0x1d0>)
 80047dc:	f852 f023 	ldr.w	pc, [r2, r3, lsl #2]
 80047e0:	0800484d 	.word	0x0800484d
 80047e4:	08004899 	.word	0x08004899
 80047e8:	0800489f 	.word	0x0800489f
 80047ec:	08004697 	.word	0x08004697
 80047f0:	0800488d 	.word	0x0800488d
 80047f4:	08004697 	.word	0x08004697
 80047f8:	08004697 	.word	0x08004697
 80047fc:	08004697 	.word	0x08004697
 8004800:	08004893 	.word	0x08004893
 8004804:	f5b3 7f40 	cmp.w	r3, #768	; 0x300
 8004808:	d012      	beq.n	8004830 <UART_SetConfig+0x220>
 800480a:	e744      	b.n	8004696 <UART_SetConfig+0x86>
 800480c:	f7fe ff90 	bl	8003730 <HAL_RCC_GetPCLK1Freq>
 8004810:	e754      	b.n	80046bc <UART_SetConfig+0xac>
 8004812:	4b2b      	ldr	r3, [pc, #172]	; (80048c0 <UART_SetConfig+0x2b0>)
 8004814:	f8d3 3088 	ldr.w	r3, [r3, #136]	; 0x88
 8004818:	f003 0330 	and.w	r3, r3, #48	; 0x30
 800481c:	2b20      	cmp	r3, #32
 800481e:	d030      	beq.n	8004882 <UART_SetConfig+0x272>
 8004820:	d803      	bhi.n	800482a <UART_SetConfig+0x21a>
 8004822:	b183      	cbz	r3, 8004846 <UART_SetConfig+0x236>
 8004824:	2b10      	cmp	r3, #16
 8004826:	d0cf      	beq.n	80047c8 <UART_SetConfig+0x1b8>
 8004828:	e735      	b.n	8004696 <UART_SetConfig+0x86>
 800482a:	2b30      	cmp	r3, #48	; 0x30
 800482c:	f47f af33 	bne.w	8004696 <UART_SetConfig+0x86>
 8004830:	f5b0 4f00 	cmp.w	r0, #32768	; 0x8000
 8004834:	d02d      	beq.n	8004892 <UART_SetConfig+0x282>
 8004836:	f44f 4000 	mov.w	r0, #32768	; 0x8000
 800483a:	e741      	b.n	80046c0 <UART_SetConfig+0xb0>
 800483c:	2bc0      	cmp	r3, #192	; 0xc0
 800483e:	d0f7      	beq.n	8004830 <UART_SetConfig+0x220>
 8004840:	e729      	b.n	8004696 <UART_SetConfig+0x86>
 8004842:	4823      	ldr	r0, [pc, #140]	; (80048d0 <UART_SetConfig+0x2c0>)
 8004844:	e78f      	b.n	8004766 <UART_SetConfig+0x156>
 8004846:	f5b0 4f00 	cmp.w	r0, #32768	; 0x8000
 800484a:	d1df      	bne.n	800480c <UART_SetConfig+0x1fc>
 800484c:	f7fe ff70 	bl	8003730 <HAL_RCC_GetPCLK1Freq>
 8004850:	2800      	cmp	r0, #0
 8004852:	f43f af7e 	beq.w	8004752 <UART_SetConfig+0x142>
 8004856:	0043      	lsls	r3, r0, #1
 8004858:	6862      	ldr	r2, [r4, #4]
 800485a:	f64f 71ef 	movw	r1, #65519	; 0xffef
 800485e:	eb03 0352 	add.w	r3, r3, r2, lsr #1
 8004862:	fbb3 f3f2 	udiv	r3, r3, r2
 8004866:	f1a3 0210 	sub.w	r2, r3, #16
 800486a:	428a      	cmp	r2, r1
 800486c:	f63f af13 	bhi.w	8004696 <UART_SetConfig+0x86>
 8004870:	f023 020f 	bic.w	r2, r3, #15
 8004874:	6821      	ldr	r1, [r4, #0]
 8004876:	b292      	uxth	r2, r2
 8004878:	f3c3 0342 	ubfx	r3, r3, #1, #3
 800487c:	4313      	orrs	r3, r2
 800487e:	60cb      	str	r3, [r1, #12]
 8004880:	e767      	b.n	8004752 <UART_SetConfig+0x142>
 8004882:	f5b0 4f00 	cmp.w	r0, #32768	; 0x8000
 8004886:	d00a      	beq.n	800489e <UART_SetConfig+0x28e>
 8004888:	4811      	ldr	r0, [pc, #68]	; (80048d0 <UART_SetConfig+0x2c0>)
 800488a:	e719      	b.n	80046c0 <UART_SetConfig+0xb0>
 800488c:	f7fe fb5a 	bl	8002f44 <HAL_RCC_GetSysClockFreq>
 8004890:	e7de      	b.n	8004850 <UART_SetConfig+0x240>
 8004892:	f44f 3380 	mov.w	r3, #65536	; 0x10000
 8004896:	e7df      	b.n	8004858 <UART_SetConfig+0x248>
 8004898:	f7fe ff5c 	bl	8003754 <HAL_RCC_GetPCLK2Freq>
 800489c:	e7d8      	b.n	8004850 <UART_SetConfig+0x240>
 800489e:	4b0d      	ldr	r3, [pc, #52]	; (80048d4 <UART_SetConfig+0x2c4>)
 80048a0:	e7da      	b.n	8004858 <UART_SetConfig+0x248>
 80048a2:	bf00      	nop
 80048a4:	efff69f3 	.word	0xefff69f3
 80048a8:	40008000 	.word	0x40008000
 80048ac:	40013800 	.word	0x40013800
 80048b0:	40004400 	.word	0x40004400
 80048b4:	40004800 	.word	0x40004800
 80048b8:	40004c00 	.word	0x40004c00
 80048bc:	40005000 	.word	0x40005000
 80048c0:	40021000 	.word	0x40021000
 80048c4:	0803c360 	.word	0x0803c360
 80048c8:	000ffcff 	.word	0x000ffcff
 80048cc:	0803c35c 	.word	0x0803c35c
 80048d0:	00f42400 	.word	0x00f42400
 80048d4:	01e84800 	.word	0x01e84800

080048d8 <UART_AdvFeatureConfig>:
 80048d8:	6a43      	ldr	r3, [r0, #36]	; 0x24
 80048da:	071a      	lsls	r2, r3, #28
 80048dc:	b410      	push	{r4}
 80048de:	d506      	bpl.n	80048ee <UART_AdvFeatureConfig+0x16>
 80048e0:	6801      	ldr	r1, [r0, #0]
 80048e2:	6b44      	ldr	r4, [r0, #52]	; 0x34
 80048e4:	684a      	ldr	r2, [r1, #4]
 80048e6:	f422 4200 	bic.w	r2, r2, #32768	; 0x8000
 80048ea:	4322      	orrs	r2, r4
 80048ec:	604a      	str	r2, [r1, #4]
 80048ee:	07dc      	lsls	r4, r3, #31
 80048f0:	d506      	bpl.n	8004900 <UART_AdvFeatureConfig+0x28>
 80048f2:	6801      	ldr	r1, [r0, #0]
 80048f4:	6a84      	ldr	r4, [r0, #40]	; 0x28
 80048f6:	684a      	ldr	r2, [r1, #4]
 80048f8:	f422 3200 	bic.w	r2, r2, #131072	; 0x20000
 80048fc:	4322      	orrs	r2, r4
 80048fe:	604a      	str	r2, [r1, #4]
 8004900:	0799      	lsls	r1, r3, #30
 8004902:	d506      	bpl.n	8004912 <UART_AdvFeatureConfig+0x3a>
 8004904:	6801      	ldr	r1, [r0, #0]
 8004906:	6ac4      	ldr	r4, [r0, #44]	; 0x2c
 8004908:	684a      	ldr	r2, [r1, #4]
 800490a:	f422 3280 	bic.w	r2, r2, #65536	; 0x10000
 800490e:	4322      	orrs	r2, r4
 8004910:	604a      	str	r2, [r1, #4]
 8004912:	075a      	lsls	r2, r3, #29
 8004914:	d506      	bpl.n	8004924 <UART_AdvFeatureConfig+0x4c>
 8004916:	6801      	ldr	r1, [r0, #0]
 8004918:	6b04      	ldr	r4, [r0, #48]	; 0x30
 800491a:	684a      	ldr	r2, [r1, #4]
 800491c:	f422 2280 	bic.w	r2, r2, #262144	; 0x40000
 8004920:	4322      	orrs	r2, r4
 8004922:	604a      	str	r2, [r1, #4]
 8004924:	06dc      	lsls	r4, r3, #27
 8004926:	d506      	bpl.n	8004936 <UART_AdvFeatureConfig+0x5e>
 8004928:	6801      	ldr	r1, [r0, #0]
 800492a:	6b84      	ldr	r4, [r0, #56]	; 0x38
 800492c:	688a      	ldr	r2, [r1, #8]
 800492e:	f422 5280 	bic.w	r2, r2, #4096	; 0x1000
 8004932:	4322      	orrs	r2, r4
 8004934:	608a      	str	r2, [r1, #8]
 8004936:	0699      	lsls	r1, r3, #26
 8004938:	d506      	bpl.n	8004948 <UART_AdvFeatureConfig+0x70>
 800493a:	6801      	ldr	r1, [r0, #0]
 800493c:	6bc4      	ldr	r4, [r0, #60]	; 0x3c
 800493e:	688a      	ldr	r2, [r1, #8]
 8004940:	f422 5200 	bic.w	r2, r2, #8192	; 0x2000
 8004944:	4322      	orrs	r2, r4
 8004946:	608a      	str	r2, [r1, #8]
 8004948:	065a      	lsls	r2, r3, #25
 800494a:	d509      	bpl.n	8004960 <UART_AdvFeatureConfig+0x88>
 800494c:	6801      	ldr	r1, [r0, #0]
 800494e:	6c04      	ldr	r4, [r0, #64]	; 0x40
 8004950:	684a      	ldr	r2, [r1, #4]
 8004952:	f422 1280 	bic.w	r2, r2, #1048576	; 0x100000
 8004956:	4322      	orrs	r2, r4
 8004958:	f5b4 1f80 	cmp.w	r4, #1048576	; 0x100000
 800495c:	604a      	str	r2, [r1, #4]
 800495e:	d00b      	beq.n	8004978 <UART_AdvFeatureConfig+0xa0>
 8004960:	061b      	lsls	r3, r3, #24
 8004962:	d506      	bpl.n	8004972 <UART_AdvFeatureConfig+0x9a>
 8004964:	6802      	ldr	r2, [r0, #0]
 8004966:	6c81      	ldr	r1, [r0, #72]	; 0x48
 8004968:	6853      	ldr	r3, [r2, #4]
 800496a:	f423 2300 	bic.w	r3, r3, #524288	; 0x80000
 800496e:	430b      	orrs	r3, r1
 8004970:	6053      	str	r3, [r2, #4]
 8004972:	f85d 4b04 	ldr.w	r4, [sp], #4
 8004976:	4770      	bx	lr
 8004978:	684a      	ldr	r2, [r1, #4]
 800497a:	6c44      	ldr	r4, [r0, #68]	; 0x44
 800497c:	f422 02c0 	bic.w	r2, r2, #6291456	; 0x600000
 8004980:	4322      	orrs	r2, r4
 8004982:	604a      	str	r2, [r1, #4]
 8004984:	e7ec      	b.n	8004960 <UART_AdvFeatureConfig+0x88>
 8004986:	bf00      	nop

08004988 <UART_CheckIdleState>:
 8004988:	b538      	push	{r3, r4, r5, lr}
 800498a:	2300      	movs	r3, #0
 800498c:	4604      	mov	r4, r0
 800498e:	f8c0 3084 	str.w	r3, [r0, #132]	; 0x84
 8004992:	f7fd fc27 	bl	80021e4 <HAL_GetTick>
 8004996:	6822      	ldr	r2, [r4, #0]
 8004998:	6813      	ldr	r3, [r2, #0]
 800499a:	071b      	lsls	r3, r3, #28
 800499c:	4605      	mov	r5, r0
 800499e:	d40e      	bmi.n	80049be <UART_CheckIdleState+0x36>
 80049a0:	6813      	ldr	r3, [r2, #0]
 80049a2:	0759      	lsls	r1, r3, #29
 80049a4:	d42f      	bmi.n	8004a06 <UART_CheckIdleState+0x7e>
 80049a6:	2300      	movs	r3, #0
 80049a8:	2220      	movs	r2, #32
 80049aa:	67e2      	str	r2, [r4, #124]	; 0x7c
 80049ac:	4618      	mov	r0, r3
 80049ae:	f8c4 2080 	str.w	r2, [r4, #128]	; 0x80
 80049b2:	6623      	str	r3, [r4, #96]	; 0x60
 80049b4:	6663      	str	r3, [r4, #100]	; 0x64
 80049b6:	2300      	movs	r3, #0
 80049b8:	f884 3078 	strb.w	r3, [r4, #120]	; 0x78
 80049bc:	bd38      	pop	{r3, r4, r5, pc}
 80049be:	69d3      	ldr	r3, [r2, #28]
 80049c0:	0298      	lsls	r0, r3, #10
 80049c2:	d4ed      	bmi.n	80049a0 <UART_CheckIdleState+0x18>
 80049c4:	e00c      	b.n	80049e0 <UART_CheckIdleState+0x58>
 80049c6:	6819      	ldr	r1, [r3, #0]
 80049c8:	0749      	lsls	r1, r1, #29
 80049ca:	461a      	mov	r2, r3
 80049cc:	d505      	bpl.n	80049da <UART_CheckIdleState+0x52>
 80049ce:	69d9      	ldr	r1, [r3, #28]
 80049d0:	0708      	lsls	r0, r1, #28
 80049d2:	d44a      	bmi.n	8004a6a <UART_CheckIdleState+0xe2>
 80049d4:	69d9      	ldr	r1, [r3, #28]
 80049d6:	0509      	lsls	r1, r1, #20
 80049d8:	d475      	bmi.n	8004ac6 <UART_CheckIdleState+0x13e>
 80049da:	69db      	ldr	r3, [r3, #28]
 80049dc:	0298      	lsls	r0, r3, #10
 80049de:	d4df      	bmi.n	80049a0 <UART_CheckIdleState+0x18>
 80049e0:	f7fd fc00 	bl	80021e4 <HAL_GetTick>
 80049e4:	1b43      	subs	r3, r0, r5
 80049e6:	f1b3 7f00 	cmp.w	r3, #33554432	; 0x2000000
 80049ea:	6823      	ldr	r3, [r4, #0]
 80049ec:	d3eb      	bcc.n	80049c6 <UART_CheckIdleState+0x3e>
 80049ee:	e853 2f00 	ldrex	r2, [r3]
 80049f2:	f022 0280 	bic.w	r2, r2, #128	; 0x80
 80049f6:	e843 2100 	strex	r1, r2, [r3]
 80049fa:	2900      	cmp	r1, #0
 80049fc:	d1f7      	bne.n	80049ee <UART_CheckIdleState+0x66>
 80049fe:	2320      	movs	r3, #32
 8004a00:	67e3      	str	r3, [r4, #124]	; 0x7c
 8004a02:	2003      	movs	r0, #3
 8004a04:	e7d7      	b.n	80049b6 <UART_CheckIdleState+0x2e>
 8004a06:	69d3      	ldr	r3, [r2, #28]
 8004a08:	025b      	lsls	r3, r3, #9
 8004a0a:	d4cc      	bmi.n	80049a6 <UART_CheckIdleState+0x1e>
 8004a0c:	e00d      	b.n	8004a2a <UART_CheckIdleState+0xa2>
 8004a0e:	681a      	ldr	r2, [r3, #0]
 8004a10:	0750      	lsls	r0, r2, #29
 8004a12:	d507      	bpl.n	8004a24 <UART_CheckIdleState+0x9c>
 8004a14:	69da      	ldr	r2, [r3, #28]
 8004a16:	0711      	lsls	r1, r2, #28
 8004a18:	f100 8083 	bmi.w	8004b22 <UART_CheckIdleState+0x19a>
 8004a1c:	69da      	ldr	r2, [r3, #28]
 8004a1e:	0512      	lsls	r2, r2, #20
 8004a20:	f100 80ad 	bmi.w	8004b7e <UART_CheckIdleState+0x1f6>
 8004a24:	69db      	ldr	r3, [r3, #28]
 8004a26:	025b      	lsls	r3, r3, #9
 8004a28:	d4bd      	bmi.n	80049a6 <UART_CheckIdleState+0x1e>
 8004a2a:	f7fd fbdb 	bl	80021e4 <HAL_GetTick>
 8004a2e:	1b43      	subs	r3, r0, r5
 8004a30:	f1b3 7f00 	cmp.w	r3, #33554432	; 0x2000000
 8004a34:	6823      	ldr	r3, [r4, #0]
 8004a36:	d3ea      	bcc.n	8004a0e <UART_CheckIdleState+0x86>
 8004a38:	e853 2f00 	ldrex	r2, [r3]
 8004a3c:	f422 7290 	bic.w	r2, r2, #288	; 0x120
 8004a40:	e843 2100 	strex	r1, r2, [r3]
 8004a44:	2900      	cmp	r1, #0
 8004a46:	d1f7      	bne.n	8004a38 <UART_CheckIdleState+0xb0>
 8004a48:	f103 0208 	add.w	r2, r3, #8
 8004a4c:	e852 2f00 	ldrex	r2, [r2]
 8004a50:	f022 0201 	bic.w	r2, r2, #1
 8004a54:	f103 0008 	add.w	r0, r3, #8
 8004a58:	e840 2100 	strex	r1, r2, [r0]
 8004a5c:	2900      	cmp	r1, #0
 8004a5e:	d1f3      	bne.n	8004a48 <UART_CheckIdleState+0xc0>
 8004a60:	2320      	movs	r3, #32
 8004a62:	f8c4 3080 	str.w	r3, [r4, #128]	; 0x80
 8004a66:	2003      	movs	r0, #3
 8004a68:	e7a5      	b.n	80049b6 <UART_CheckIdleState+0x2e>
 8004a6a:	2208      	movs	r2, #8
 8004a6c:	621a      	str	r2, [r3, #32]
 8004a6e:	e853 2f00 	ldrex	r2, [r3]
 8004a72:	f422 7290 	bic.w	r2, r2, #288	; 0x120
 8004a76:	e843 2100 	strex	r1, r2, [r3]
 8004a7a:	2900      	cmp	r1, #0
 8004a7c:	d1f7      	bne.n	8004a6e <UART_CheckIdleState+0xe6>
 8004a7e:	f103 0208 	add.w	r2, r3, #8
 8004a82:	e852 2f00 	ldrex	r2, [r2]
 8004a86:	f022 0201 	bic.w	r2, r2, #1
 8004a8a:	f103 0008 	add.w	r0, r3, #8
 8004a8e:	e840 2100 	strex	r1, r2, [r0]
 8004a92:	2900      	cmp	r1, #0
 8004a94:	d1f3      	bne.n	8004a7e <UART_CheckIdleState+0xf6>
 8004a96:	6e22      	ldr	r2, [r4, #96]	; 0x60
 8004a98:	2a01      	cmp	r2, #1
 8004a9a:	d00b      	beq.n	8004ab4 <UART_CheckIdleState+0x12c>
 8004a9c:	2200      	movs	r2, #0
 8004a9e:	2020      	movs	r0, #32
 8004aa0:	2108      	movs	r1, #8
 8004aa2:	f8c4 0080 	str.w	r0, [r4, #128]	; 0x80
 8004aa6:	66a2      	str	r2, [r4, #104]	; 0x68
 8004aa8:	6622      	str	r2, [r4, #96]	; 0x60
 8004aaa:	f884 2078 	strb.w	r2, [r4, #120]	; 0x78
 8004aae:	f8c4 1084 	str.w	r1, [r4, #132]	; 0x84
 8004ab2:	e79c      	b.n	80049ee <UART_CheckIdleState+0x66>
 8004ab4:	e853 2f00 	ldrex	r2, [r3]
 8004ab8:	f022 0210 	bic.w	r2, r2, #16
 8004abc:	e843 2100 	strex	r1, r2, [r3]
 8004ac0:	2900      	cmp	r1, #0
 8004ac2:	d1f7      	bne.n	8004ab4 <UART_CheckIdleState+0x12c>
 8004ac4:	e7ea      	b.n	8004a9c <UART_CheckIdleState+0x114>
 8004ac6:	f44f 6200 	mov.w	r2, #2048	; 0x800
 8004aca:	621a      	str	r2, [r3, #32]
 8004acc:	e853 2f00 	ldrex	r2, [r3]
 8004ad0:	f422 7290 	bic.w	r2, r2, #288	; 0x120
 8004ad4:	e843 2100 	strex	r1, r2, [r3]
 8004ad8:	2900      	cmp	r1, #0
 8004ada:	d1f7      	bne.n	8004acc <UART_CheckIdleState+0x144>
 8004adc:	f103 0208 	add.w	r2, r3, #8
 8004ae0:	e852 2f00 	ldrex	r2, [r2]
 8004ae4:	f022 0201 	bic.w	r2, r2, #1
 8004ae8:	f103 0008 	add.w	r0, r3, #8
 8004aec:	e840 2100 	strex	r1, r2, [r0]
 8004af0:	2900      	cmp	r1, #0
 8004af2:	d1f3      	bne.n	8004adc <UART_CheckIdleState+0x154>
 8004af4:	6e22      	ldr	r2, [r4, #96]	; 0x60
 8004af6:	2a01      	cmp	r2, #1
 8004af8:	d00a      	beq.n	8004b10 <UART_CheckIdleState+0x188>
 8004afa:	2200      	movs	r2, #0
 8004afc:	2120      	movs	r1, #32
 8004afe:	f8c4 1080 	str.w	r1, [r4, #128]	; 0x80
 8004b02:	66a2      	str	r2, [r4, #104]	; 0x68
 8004b04:	6622      	str	r2, [r4, #96]	; 0x60
 8004b06:	f884 2078 	strb.w	r2, [r4, #120]	; 0x78
 8004b0a:	f8c4 1084 	str.w	r1, [r4, #132]	; 0x84
 8004b0e:	e76e      	b.n	80049ee <UART_CheckIdleState+0x66>
 8004b10:	e853 2f00 	ldrex	r2, [r3]
 8004b14:	f022 0210 	bic.w	r2, r2, #16
 8004b18:	e843 2100 	strex	r1, r2, [r3]
 8004b1c:	2900      	cmp	r1, #0
 8004b1e:	d1f7      	bne.n	8004b10 <UART_CheckIdleState+0x188>
 8004b20:	e7eb      	b.n	8004afa <UART_CheckIdleState+0x172>
 8004b22:	2208      	movs	r2, #8
 8004b24:	621a      	str	r2, [r3, #32]
 8004b26:	e853 2f00 	ldrex	r2, [r3]
 8004b2a:	f422 7290 	bic.w	r2, r2, #288	; 0x120
 8004b2e:	e843 2100 	strex	r1, r2, [r3]
 8004b32:	2900      	cmp	r1, #0
 8004b34:	d1f7      	bne.n	8004b26 <UART_CheckIdleState+0x19e>
 8004b36:	f103 0208 	add.w	r2, r3, #8
 8004b3a:	e852 2f00 	ldrex	r2, [r2]
 8004b3e:	f022 0201 	bic.w	r2, r2, #1
 8004b42:	f103 0008 	add.w	r0, r3, #8
 8004b46:	e840 2100 	strex	r1, r2, [r0]
 8004b4a:	2900      	cmp	r1, #0
 8004b4c:	d1f3      	bne.n	8004b36 <UART_CheckIdleState+0x1ae>
 8004b4e:	6e22      	ldr	r2, [r4, #96]	; 0x60
 8004b50:	2a01      	cmp	r2, #1
 8004b52:	d00b      	beq.n	8004b6c <UART_CheckIdleState+0x1e4>
 8004b54:	2200      	movs	r2, #0
 8004b56:	2020      	movs	r0, #32
 8004b58:	2108      	movs	r1, #8
 8004b5a:	f8c4 0080 	str.w	r0, [r4, #128]	; 0x80
 8004b5e:	66a2      	str	r2, [r4, #104]	; 0x68
 8004b60:	6622      	str	r2, [r4, #96]	; 0x60
 8004b62:	f884 2078 	strb.w	r2, [r4, #120]	; 0x78
 8004b66:	f8c4 1084 	str.w	r1, [r4, #132]	; 0x84
 8004b6a:	e765      	b.n	8004a38 <UART_CheckIdleState+0xb0>
 8004b6c:	e853 2f00 	ldrex	r2, [r3]
 8004b70:	f022 0210 	bic.w	r2, r2, #16
 8004b74:	e843 2100 	strex	r1, r2, [r3]
 8004b78:	2900      	cmp	r1, #0
 8004b7a:	d1f7      	bne.n	8004b6c <UART_CheckIdleState+0x1e4>
 8004b7c:	e7ea      	b.n	8004b54 <UART_CheckIdleState+0x1cc>
 8004b7e:	f44f 6200 	mov.w	r2, #2048	; 0x800
 8004b82:	621a      	str	r2, [r3, #32]
 8004b84:	e853 2f00 	ldrex	r2, [r3]
 8004b88:	f422 7290 	bic.w	r2, r2, #288	; 0x120
 8004b8c:	e843 2100 	strex	r1, r2, [r3]
 8004b90:	2900      	cmp	r1, #0
 8004b92:	d1f7      	bne.n	8004b84 <UART_CheckIdleState+0x1fc>
 8004b94:	f103 0208 	add.w	r2, r3, #8
 8004b98:	e852 2f00 	ldrex	r2, [r2]
 8004b9c:	f022 0201 	bic.w	r2, r2, #1
 8004ba0:	f103 0008 	add.w	r0, r3, #8
 8004ba4:	e840 2100 	strex	r1, r2, [r0]
 8004ba8:	2900      	cmp	r1, #0
 8004baa:	d1f3      	bne.n	8004b94 <UART_CheckIdleState+0x20c>
 8004bac:	6e22      	ldr	r2, [r4, #96]	; 0x60
 8004bae:	2a01      	cmp	r2, #1
 8004bb0:	d00a      	beq.n	8004bc8 <UART_CheckIdleState+0x240>
 8004bb2:	2200      	movs	r2, #0
 8004bb4:	2120      	movs	r1, #32
 8004bb6:	f8c4 1080 	str.w	r1, [r4, #128]	; 0x80
 8004bba:	66a2      	str	r2, [r4, #104]	; 0x68
 8004bbc:	6622      	str	r2, [r4, #96]	; 0x60
 8004bbe:	f884 2078 	strb.w	r2, [r4, #120]	; 0x78
 8004bc2:	f8c4 1084 	str.w	r1, [r4, #132]	; 0x84
 8004bc6:	e737      	b.n	8004a38 <UART_CheckIdleState+0xb0>
 8004bc8:	e853 2f00 	ldrex	r2, [r3]
 8004bcc:	f022 0210 	bic.w	r2, r2, #16
 8004bd0:	e843 2100 	strex	r1, r2, [r3]
 8004bd4:	2900      	cmp	r1, #0
 8004bd6:	d1f7      	bne.n	8004bc8 <UART_CheckIdleState+0x240>
 8004bd8:	e7eb      	b.n	8004bb2 <UART_CheckIdleState+0x22a>
 8004bda:	bf00      	nop

08004bdc <HAL_UART_Init>:
 8004bdc:	b370      	cbz	r0, 8004c3c <HAL_UART_Init+0x60>
 8004bde:	6fc3      	ldr	r3, [r0, #124]	; 0x7c
 8004be0:	b510      	push	{r4, lr}
 8004be2:	4604      	mov	r4, r0
 8004be4:	b32b      	cbz	r3, 8004c32 <HAL_UART_Init+0x56>
 8004be6:	6822      	ldr	r2, [r4, #0]
 8004be8:	6a61      	ldr	r1, [r4, #36]	; 0x24
 8004bea:	2324      	movs	r3, #36	; 0x24
 8004bec:	67e3      	str	r3, [r4, #124]	; 0x7c
 8004bee:	6813      	ldr	r3, [r2, #0]
 8004bf0:	f023 0301 	bic.w	r3, r3, #1
 8004bf4:	6013      	str	r3, [r2, #0]
 8004bf6:	b9c1      	cbnz	r1, 8004c2a <HAL_UART_Init+0x4e>
 8004bf8:	4620      	mov	r0, r4
 8004bfa:	f7ff fd09 	bl	8004610 <UART_SetConfig>
 8004bfe:	2801      	cmp	r0, #1
 8004c00:	d011      	beq.n	8004c26 <HAL_UART_Init+0x4a>
 8004c02:	6823      	ldr	r3, [r4, #0]
 8004c04:	685a      	ldr	r2, [r3, #4]
 8004c06:	f422 4290 	bic.w	r2, r2, #18432	; 0x4800
 8004c0a:	605a      	str	r2, [r3, #4]
 8004c0c:	689a      	ldr	r2, [r3, #8]
 8004c0e:	f022 022a 	bic.w	r2, r2, #42	; 0x2a
 8004c12:	609a      	str	r2, [r3, #8]
 8004c14:	681a      	ldr	r2, [r3, #0]
 8004c16:	f042 0201 	orr.w	r2, r2, #1
 8004c1a:	4620      	mov	r0, r4
 8004c1c:	601a      	str	r2, [r3, #0]
 8004c1e:	e8bd 4010 	ldmia.w	sp!, {r4, lr}
 8004c22:	f7ff beb1 	b.w	8004988 <UART_CheckIdleState>
 8004c26:	2001      	movs	r0, #1
 8004c28:	bd10      	pop	{r4, pc}
 8004c2a:	4620      	mov	r0, r4
 8004c2c:	f7ff fe54 	bl	80048d8 <UART_AdvFeatureConfig>
 8004c30:	e7e2      	b.n	8004bf8 <HAL_UART_Init+0x1c>
 8004c32:	f880 3078 	strb.w	r3, [r0, #120]	; 0x78
 8004c36:	f7fc fc4b 	bl	80014d0 <HAL_UART_MspInit>
 8004c3a:	e7d4      	b.n	8004be6 <HAL_UART_Init+0xa>
 8004c3c:	2001      	movs	r0, #1
 8004c3e:	4770      	bx	lr

08004c40 <HAL_UARTEx_WakeupCallback>:
 8004c40:	4770      	bx	lr
 8004c42:	bf00      	nop

08004c44 <memset>:
 8004c44:	4402      	add	r2, r0
 8004c46:	4603      	mov	r3, r0
 8004c48:	4293      	cmp	r3, r2
 8004c4a:	d100      	bne.n	8004c4e <memset+0xa>
 8004c4c:	4770      	bx	lr
 8004c4e:	f803 1b01 	strb.w	r1, [r3], #1
 8004c52:	e7f9      	b.n	8004c48 <memset+0x4>

08004c54 <strncpy>:
 8004c54:	b510      	push	{r4, lr}
 8004c56:	3901      	subs	r1, #1
 8004c58:	4603      	mov	r3, r0
 8004c5a:	b132      	cbz	r2, 8004c6a <strncpy+0x16>
 8004c5c:	f811 4f01 	ldrb.w	r4, [r1, #1]!
 8004c60:	f803 4b01 	strb.w	r4, [r3], #1
 8004c64:	3a01      	subs	r2, #1
 8004c66:	2c00      	cmp	r4, #0
 8004c68:	d1f7      	bne.n	8004c5a <strncpy+0x6>
 8004c6a:	441a      	add	r2, r3
 8004c6c:	2100      	movs	r1, #0
 8004c6e:	4293      	cmp	r3, r2
 8004c70:	d100      	bne.n	8004c74 <strncpy+0x20>
 8004c72:	bd10      	pop	{r4, pc}
 8004c74:	f803 1b01 	strb.w	r1, [r3], #1
 8004c78:	e7f9      	b.n	8004c6e <strncpy+0x1a>
	...

08004c7c <__libc_init_array>:
 8004c7c:	b570      	push	{r4, r5, r6, lr}
 8004c7e:	4d0d      	ldr	r5, [pc, #52]	; (8004cb4 <__libc_init_array+0x38>)
 8004c80:	4c0d      	ldr	r4, [pc, #52]	; (8004cb8 <__libc_init_array+0x3c>)
 8004c82:	1b64      	subs	r4, r4, r5
 8004c84:	10a4      	asrs	r4, r4, #2
 8004c86:	2600      	movs	r6, #0
 8004c88:	42a6      	cmp	r6, r4
 8004c8a:	d109      	bne.n	8004ca0 <__libc_init_array+0x24>
 8004c8c:	4d0b      	ldr	r5, [pc, #44]	; (8004cbc <__libc_init_array+0x40>)
 8004c8e:	4c0c      	ldr	r4, [pc, #48]	; (8004cc0 <__libc_init_array+0x44>)
 8004c90:	f000 f818 	bl	8004cc4 <_init>
 8004c94:	1b64      	subs	r4, r4, r5
 8004c96:	10a4      	asrs	r4, r4, #2
 8004c98:	2600      	movs	r6, #0
 8004c9a:	42a6      	cmp	r6, r4
 8004c9c:	d105      	bne.n	8004caa <__libc_init_array+0x2e>
 8004c9e:	bd70      	pop	{r4, r5, r6, pc}
 8004ca0:	f855 3b04 	ldr.w	r3, [r5], #4
 8004ca4:	4798      	blx	r3
 8004ca6:	3601      	adds	r6, #1
 8004ca8:	e7ee      	b.n	8004c88 <__libc_init_array+0xc>
 8004caa:	f855 3b04 	ldr.w	r3, [r5], #4
 8004cae:	4798      	blx	r3
 8004cb0:	3601      	adds	r6, #1
 8004cb2:	e7f2      	b.n	8004c9a <__libc_init_array+0x1e>
 8004cb4:	0803c378 	.word	0x0803c378
 8004cb8:	0803c378 	.word	0x0803c378
 8004cbc:	0803c378 	.word	0x0803c378
 8004cc0:	0803c37c 	.word	0x0803c37c

08004cc4 <_init>:
 8004cc4:	b5f8      	push	{r3, r4, r5, r6, r7, lr}
 8004cc6:	bf00      	nop
 8004cc8:	bcf8      	pop	{r3, r4, r5, r6, r7}
 8004cca:	bc08      	pop	{r3}
 8004ccc:	469e      	mov	lr, r3
 8004cce:	4770      	bx	lr

08004cd0 <_fini>:
 8004cd0:	b5f8      	push	{r3, r4, r5, r6, r7, lr}
 8004cd2:	bf00      	nop
 8004cd4:	bcf8      	pop	{r3, r4, r5, r6, r7}
 8004cd6:	bc08      	pop	{r3}
 8004cd8:	469e      	mov	lr, r3
 8004cda:	4770      	bx	lr
